
bomb:     file format elf64-x86-64


Disassembly of section .init:

0000000000400a98 <_init>:
  400a98:	48 83 ec 08          	sub    $0x8,%rsp
  400a9c:	48 8b 05 55 35 20 00 	mov    0x203555(%rip),%rax        # 603ff8 <__gmon_start__>
  400aa3:	48 85 c0             	test   %rax,%rax
  400aa6:	74 05                	je     400aad <_init+0x15>
  400aa8:	e8 13 01 00 00       	callq  400bc0 <__gmon_start__@plt>
  400aad:	48 83 c4 08          	add    $0x8,%rsp
  400ab1:	c3                   	retq   

Disassembly of section .plt:

0000000000400ac0 <.plt>:
  400ac0:	ff 35 42 35 20 00    	pushq  0x203542(%rip)        # 604008 <_GLOBAL_OFFSET_TABLE_+0x8>
  400ac6:	ff 25 44 35 20 00    	jmpq   *0x203544(%rip)        # 604010 <_GLOBAL_OFFSET_TABLE_+0x10>
  400acc:	0f 1f 40 00          	nopl   0x0(%rax)

0000000000400ad0 <getenv@plt>:
  400ad0:	ff 25 42 35 20 00    	jmpq   *0x203542(%rip)        # 604018 <getenv@GLIBC_2.2.5>
  400ad6:	68 00 00 00 00       	pushq  $0x0
  400adb:	e9 e0 ff ff ff       	jmpq   400ac0 <.plt>

0000000000400ae0 <strcasecmp@plt>:
  400ae0:	ff 25 3a 35 20 00    	jmpq   *0x20353a(%rip)        # 604020 <strcasecmp@GLIBC_2.2.5>
  400ae6:	68 01 00 00 00       	pushq  $0x1
  400aeb:	e9 d0 ff ff ff       	jmpq   400ac0 <.plt>

0000000000400af0 <__errno_location@plt>:
  400af0:	ff 25 32 35 20 00    	jmpq   *0x203532(%rip)        # 604028 <__errno_location@GLIBC_2.2.5>
  400af6:	68 02 00 00 00       	pushq  $0x2
  400afb:	e9 c0 ff ff ff       	jmpq   400ac0 <.plt>

0000000000400b00 <strcpy@plt>:
  400b00:	ff 25 2a 35 20 00    	jmpq   *0x20352a(%rip)        # 604030 <strcpy@GLIBC_2.2.5>
  400b06:	68 03 00 00 00       	pushq  $0x3
  400b0b:	e9 b0 ff ff ff       	jmpq   400ac0 <.plt>

0000000000400b10 <puts@plt>:
  400b10:	ff 25 22 35 20 00    	jmpq   *0x203522(%rip)        # 604038 <puts@GLIBC_2.2.5>
  400b16:	68 04 00 00 00       	pushq  $0x4
  400b1b:	e9 a0 ff ff ff       	jmpq   400ac0 <.plt>

0000000000400b20 <write@plt>:
  400b20:	ff 25 1a 35 20 00    	jmpq   *0x20351a(%rip)        # 604040 <write@GLIBC_2.2.5>
  400b26:	68 05 00 00 00       	pushq  $0x5
  400b2b:	e9 90 ff ff ff       	jmpq   400ac0 <.plt>

0000000000400b30 <printf@plt>:
  400b30:	ff 25 12 35 20 00    	jmpq   *0x203512(%rip)        # 604048 <printf@GLIBC_2.2.5>
  400b36:	68 06 00 00 00       	pushq  $0x6
  400b3b:	e9 80 ff ff ff       	jmpq   400ac0 <.plt>

0000000000400b40 <alarm@plt>:
  400b40:	ff 25 0a 35 20 00    	jmpq   *0x20350a(%rip)        # 604050 <alarm@GLIBC_2.2.5>
  400b46:	68 07 00 00 00       	pushq  $0x7
  400b4b:	e9 70 ff ff ff       	jmpq   400ac0 <.plt>

0000000000400b50 <close@plt>:
  400b50:	ff 25 02 35 20 00    	jmpq   *0x203502(%rip)        # 604058 <close@GLIBC_2.2.5>
  400b56:	68 08 00 00 00       	pushq  $0x8
  400b5b:	e9 60 ff ff ff       	jmpq   400ac0 <.plt>

0000000000400b60 <read@plt>:
  400b60:	ff 25 fa 34 20 00    	jmpq   *0x2034fa(%rip)        # 604060 <read@GLIBC_2.2.5>
  400b66:	68 09 00 00 00       	pushq  $0x9
  400b6b:	e9 50 ff ff ff       	jmpq   400ac0 <.plt>

0000000000400b70 <__libc_start_main@plt>:
  400b70:	ff 25 f2 34 20 00    	jmpq   *0x2034f2(%rip)        # 604068 <__libc_start_main@GLIBC_2.2.5>
  400b76:	68 0a 00 00 00       	pushq  $0xa
  400b7b:	e9 40 ff ff ff       	jmpq   400ac0 <.plt>

0000000000400b80 <fgets@plt>:
  400b80:	ff 25 ea 34 20 00    	jmpq   *0x2034ea(%rip)        # 604070 <fgets@GLIBC_2.2.5>
  400b86:	68 0b 00 00 00       	pushq  $0xb
  400b8b:	e9 30 ff ff ff       	jmpq   400ac0 <.plt>

0000000000400b90 <signal@plt>:
  400b90:	ff 25 e2 34 20 00    	jmpq   *0x2034e2(%rip)        # 604078 <signal@GLIBC_2.2.5>
  400b96:	68 0c 00 00 00       	pushq  $0xc
  400b9b:	e9 20 ff ff ff       	jmpq   400ac0 <.plt>

0000000000400ba0 <gethostbyname@plt>:
  400ba0:	ff 25 da 34 20 00    	jmpq   *0x2034da(%rip)        # 604080 <gethostbyname@GLIBC_2.2.5>
  400ba6:	68 0d 00 00 00       	pushq  $0xd
  400bab:	e9 10 ff ff ff       	jmpq   400ac0 <.plt>

0000000000400bb0 <fprintf@plt>:
  400bb0:	ff 25 d2 34 20 00    	jmpq   *0x2034d2(%rip)        # 604088 <fprintf@GLIBC_2.2.5>
  400bb6:	68 0e 00 00 00       	pushq  $0xe
  400bbb:	e9 00 ff ff ff       	jmpq   400ac0 <.plt>

0000000000400bc0 <__gmon_start__@plt>:
  400bc0:	ff 25 ca 34 20 00    	jmpq   *0x2034ca(%rip)        # 604090 <__gmon_start__>
  400bc6:	68 0f 00 00 00       	pushq  $0xf
  400bcb:	e9 f0 fe ff ff       	jmpq   400ac0 <.plt>

0000000000400bd0 <memcpy@plt>:
  400bd0:	ff 25 c2 34 20 00    	jmpq   *0x2034c2(%rip)        # 604098 <memcpy@GLIBC_2.14>
  400bd6:	68 10 00 00 00       	pushq  $0x10
  400bdb:	e9 e0 fe ff ff       	jmpq   400ac0 <.plt>

0000000000400be0 <fflush@plt>:
  400be0:	ff 25 ba 34 20 00    	jmpq   *0x2034ba(%rip)        # 6040a0 <fflush@GLIBC_2.2.5>
  400be6:	68 11 00 00 00       	pushq  $0x11
  400beb:	e9 d0 fe ff ff       	jmpq   400ac0 <.plt>

0000000000400bf0 <__isoc99_sscanf@plt>:
  400bf0:	ff 25 b2 34 20 00    	jmpq   *0x2034b2(%rip)        # 6040a8 <__isoc99_sscanf@GLIBC_2.7>
  400bf6:	68 12 00 00 00       	pushq  $0x12
  400bfb:	e9 c0 fe ff ff       	jmpq   400ac0 <.plt>

0000000000400c00 <bcopy@plt>:
  400c00:	ff 25 aa 34 20 00    	jmpq   *0x2034aa(%rip)        # 6040b0 <bcopy@GLIBC_2.2.5>
  400c06:	68 13 00 00 00       	pushq  $0x13
  400c0b:	e9 b0 fe ff ff       	jmpq   400ac0 <.plt>

0000000000400c10 <fopen@plt>:
  400c10:	ff 25 a2 34 20 00    	jmpq   *0x2034a2(%rip)        # 6040b8 <fopen@GLIBC_2.2.5>
  400c16:	68 14 00 00 00       	pushq  $0x14
  400c1b:	e9 a0 fe ff ff       	jmpq   400ac0 <.plt>

0000000000400c20 <gethostname@plt>:
  400c20:	ff 25 9a 34 20 00    	jmpq   *0x20349a(%rip)        # 6040c0 <gethostname@GLIBC_2.2.5>
  400c26:	68 15 00 00 00       	pushq  $0x15
  400c2b:	e9 90 fe ff ff       	jmpq   400ac0 <.plt>

0000000000400c30 <sprintf@plt>:
  400c30:	ff 25 92 34 20 00    	jmpq   *0x203492(%rip)        # 6040c8 <sprintf@GLIBC_2.2.5>
  400c36:	68 16 00 00 00       	pushq  $0x16
  400c3b:	e9 80 fe ff ff       	jmpq   400ac0 <.plt>

0000000000400c40 <exit@plt>:
  400c40:	ff 25 8a 34 20 00    	jmpq   *0x20348a(%rip)        # 6040d0 <exit@GLIBC_2.2.5>
  400c46:	68 17 00 00 00       	pushq  $0x17
  400c4b:	e9 70 fe ff ff       	jmpq   400ac0 <.plt>

0000000000400c50 <connect@plt>:
  400c50:	ff 25 82 34 20 00    	jmpq   *0x203482(%rip)        # 6040d8 <connect@GLIBC_2.2.5>
  400c56:	68 18 00 00 00       	pushq  $0x18
  400c5b:	e9 60 fe ff ff       	jmpq   400ac0 <.plt>

0000000000400c60 <sleep@plt>:
  400c60:	ff 25 7a 34 20 00    	jmpq   *0x20347a(%rip)        # 6040e0 <sleep@GLIBC_2.2.5>
  400c66:	68 19 00 00 00       	pushq  $0x19
  400c6b:	e9 50 fe ff ff       	jmpq   400ac0 <.plt>

0000000000400c70 <__ctype_b_loc@plt>:
  400c70:	ff 25 72 34 20 00    	jmpq   *0x203472(%rip)        # 6040e8 <__ctype_b_loc@GLIBC_2.3>
  400c76:	68 1a 00 00 00       	pushq  $0x1a
  400c7b:	e9 40 fe ff ff       	jmpq   400ac0 <.plt>

0000000000400c80 <socket@plt>:
  400c80:	ff 25 6a 34 20 00    	jmpq   *0x20346a(%rip)        # 6040f0 <socket@GLIBC_2.2.5>
  400c86:	68 1b 00 00 00       	pushq  $0x1b
  400c8b:	e9 30 fe ff ff       	jmpq   400ac0 <.plt>

Disassembly of section .text:

0000000000400c90 <_start>:
  400c90:	31 ed                	xor    %ebp,%ebp
  400c92:	49 89 d1             	mov    %rdx,%r9
  400c95:	5e                   	pop    %rsi
  400c96:	48 89 e2             	mov    %rsp,%rdx
  400c99:	48 83 e4 f0          	and    $0xfffffffffffffff0,%rsp
  400c9d:	50                   	push   %rax
  400c9e:	54                   	push   %rsp
  400c9f:	49 c7 c0 30 29 40 00 	mov    $0x402930,%r8
  400ca6:	48 c7 c1 c0 28 40 00 	mov    $0x4028c0,%rcx
  400cad:	48 c7 c7 7d 0d 40 00 	mov    $0x400d7d,%rdi
  400cb4:	e8 b7 fe ff ff       	callq  400b70 <__libc_start_main@plt>
  400cb9:	f4                   	hlt    
  400cba:	66 0f 1f 44 00 00    	nopw   0x0(%rax,%rax,1)

0000000000400cc0 <deregister_tm_clones>:
  400cc0:	b8 07 46 60 00       	mov    $0x604607,%eax
  400cc5:	55                   	push   %rbp
  400cc6:	48 2d 00 46 60 00    	sub    $0x604600,%rax
  400ccc:	48 83 f8 0e          	cmp    $0xe,%rax
  400cd0:	48 89 e5             	mov    %rsp,%rbp
  400cd3:	77 02                	ja     400cd7 <deregister_tm_clones+0x17>
  400cd5:	5d                   	pop    %rbp
  400cd6:	c3                   	retq   
  400cd7:	b8 00 00 00 00       	mov    $0x0,%eax
  400cdc:	48 85 c0             	test   %rax,%rax
  400cdf:	74 f4                	je     400cd5 <deregister_tm_clones+0x15>
  400ce1:	5d                   	pop    %rbp
  400ce2:	bf 00 46 60 00       	mov    $0x604600,%edi
  400ce7:	ff e0                	jmpq   *%rax
  400ce9:	0f 1f 80 00 00 00 00 	nopl   0x0(%rax)

0000000000400cf0 <register_tm_clones>:
  400cf0:	b8 00 46 60 00       	mov    $0x604600,%eax
  400cf5:	55                   	push   %rbp
  400cf6:	48 2d 00 46 60 00    	sub    $0x604600,%rax
  400cfc:	48 c1 f8 03          	sar    $0x3,%rax
  400d00:	48 89 e5             	mov    %rsp,%rbp
  400d03:	48 89 c2             	mov    %rax,%rdx
  400d06:	48 c1 ea 3f          	shr    $0x3f,%rdx
  400d0a:	48 01 d0             	add    %rdx,%rax
  400d0d:	48 d1 f8             	sar    %rax
  400d10:	75 02                	jne    400d14 <register_tm_clones+0x24>
  400d12:	5d                   	pop    %rbp
  400d13:	c3                   	retq   
  400d14:	ba 00 00 00 00       	mov    $0x0,%edx
  400d19:	48 85 d2             	test   %rdx,%rdx
  400d1c:	74 f4                	je     400d12 <register_tm_clones+0x22>
  400d1e:	5d                   	pop    %rbp
  400d1f:	48 89 c6             	mov    %rax,%rsi
  400d22:	bf 00 46 60 00       	mov    $0x604600,%edi
  400d27:	ff e2                	jmpq   *%rdx
  400d29:	0f 1f 80 00 00 00 00 	nopl   0x0(%rax)

0000000000400d30 <__do_global_dtors_aux>:
  400d30:	80 3d e1 38 20 00 00 	cmpb   $0x0,0x2038e1(%rip)        # 604618 <completed.6355>
  400d37:	75 11                	jne    400d4a <__do_global_dtors_aux+0x1a>
  400d39:	55                   	push   %rbp
  400d3a:	48 89 e5             	mov    %rsp,%rbp
  400d3d:	e8 7e ff ff ff       	callq  400cc0 <deregister_tm_clones>
  400d42:	5d                   	pop    %rbp
  400d43:	c6 05 ce 38 20 00 01 	movb   $0x1,0x2038ce(%rip)        # 604618 <completed.6355>
  400d4a:	f3 c3                	repz retq 
  400d4c:	0f 1f 40 00          	nopl   0x0(%rax)

0000000000400d50 <frame_dummy>:
  400d50:	48 83 3d c8 30 20 00 	cmpq   $0x0,0x2030c8(%rip)        # 603e20 <__JCR_END__>
  400d57:	00 
  400d58:	74 1e                	je     400d78 <frame_dummy+0x28>
  400d5a:	b8 00 00 00 00       	mov    $0x0,%eax
  400d5f:	48 85 c0             	test   %rax,%rax
  400d62:	74 14                	je     400d78 <frame_dummy+0x28>
  400d64:	55                   	push   %rbp
  400d65:	bf 20 3e 60 00       	mov    $0x603e20,%edi
  400d6a:	48 89 e5             	mov    %rsp,%rbp
  400d6d:	ff d0                	callq  *%rax
  400d6f:	5d                   	pop    %rbp
  400d70:	e9 7b ff ff ff       	jmpq   400cf0 <register_tm_clones>
  400d75:	0f 1f 00             	nopl   (%rax)
  400d78:	e9 73 ff ff ff       	jmpq   400cf0 <register_tm_clones>

0000000000400d7d <main>:
  400d7d:	55                   	push   %rbp
  400d7e:	53                   	push   %rbx
  400d7f:	48 83 ec 08          	sub    $0x8,%rsp
  400d83:	89 fb                	mov    %edi,%ebx
  400d85:	83 ff 01             	cmp    $0x1,%edi
  400d88:	75 10                	jne    400d9a <main+0x1d>
  400d8a:	48 8b 05 77 38 20 00 	mov    0x203877(%rip),%rax        # 604608 <stdin@@GLIBC_2.2.5>
  400d91:	48 89 05 90 38 20 00 	mov    %rax,0x203890(%rip)        # 604628 <infile>
  400d98:	eb 5a                	jmp    400df4 <main+0x77>
  400d9a:	48 89 f5             	mov    %rsi,%rbp
  400d9d:	83 ff 02             	cmp    $0x2,%edi
  400da0:	75 36                	jne    400dd8 <main+0x5b>
  400da2:	48 8b 7e 08          	mov    0x8(%rsi),%rdi
  400da6:	be 50 29 40 00       	mov    $0x402950,%esi
  400dab:	e8 60 fe ff ff       	callq  400c10 <fopen@plt>
  400db0:	48 89 05 71 38 20 00 	mov    %rax,0x203871(%rip)        # 604628 <infile>
  400db7:	48 85 c0             	test   %rax,%rax
  400dba:	75 38                	jne    400df4 <main+0x77>
  400dbc:	48 8b 55 08          	mov    0x8(%rbp),%rdx
  400dc0:	48 8b 75 00          	mov    0x0(%rbp),%rsi
  400dc4:	bf 52 29 40 00       	mov    $0x402952,%edi
  400dc9:	e8 62 fd ff ff       	callq  400b30 <printf@plt>
  400dce:	bf 08 00 00 00       	mov    $0x8,%edi
  400dd3:	e8 68 fe ff ff       	callq  400c40 <exit@plt>
  400dd8:	48 8b 36             	mov    (%rsi),%rsi
  400ddb:	bf 6f 29 40 00       	mov    $0x40296f,%edi
  400de0:	b8 00 00 00 00       	mov    $0x0,%eax
  400de5:	e8 46 fd ff ff       	callq  400b30 <printf@plt>
  400dea:	bf 08 00 00 00       	mov    $0x8,%edi
  400def:	e8 4c fe ff ff       	callq  400c40 <exit@plt>
  400df4:	e8 51 05 00 00       	callq  40134a <initialize_bomb>
  400df9:	89 df                	mov    %ebx,%edi
  400dfb:	b8 00 00 00 00       	mov    $0x0,%eax
  400e00:	e8 06 06 00 00       	callq  40140b <welcome_message>
  400e05:	e8 32 0e 00 00       	callq  401c3c <read_line>
  400e0a:	48 89 c7             	mov    %rax,%rdi
  400e0d:	e8 ae 00 00 00       	callq  400ec0 <phase_1>
  400e12:	e8 eb 07 00 00       	callq  401602 <phase_defused>
  400e17:	bf a8 29 40 00       	mov    $0x4029a8,%edi
  400e1c:	e8 ef fc ff ff       	callq  400b10 <puts@plt>
  400e21:	e8 16 0e 00 00       	callq  401c3c <read_line>
  400e26:	48 89 c7             	mov    %rax,%rdi
  400e29:	e8 00 01 00 00       	callq  400f2e <phase_2>
  400e2e:	e8 cf 07 00 00       	callq  401602 <phase_defused>
  400e33:	bf e8 29 40 00       	mov    $0x4029e8,%edi
  400e38:	e8 d3 fc ff ff       	callq  400b10 <puts@plt>
  400e3d:	e8 fa 0d 00 00       	callq  401c3c <read_line>
  400e42:	48 89 c7             	mov    %rax,%rdi
  400e45:	e8 3a 01 00 00       	callq  400f84 <phase_3>
  400e4a:	e8 b3 07 00 00       	callq  401602 <phase_defused>
  400e4f:	bf 10 2a 40 00       	mov    $0x402a10,%edi
  400e54:	e8 b7 fc ff ff       	callq  400b10 <puts@plt>
  400e59:	e8 de 0d 00 00       	callq  401c3c <read_line>
  400e5e:	48 89 c7             	mov    %rax,%rdi
  400e61:	e8 69 01 00 00       	callq  400fcf <phase_4>
  400e66:	e8 97 07 00 00       	callq  401602 <phase_defused>
  400e6b:	bf 38 2a 40 00       	mov    $0x402a38,%edi
  400e70:	e8 9b fc ff ff       	callq  400b10 <puts@plt>
  400e75:	e8 c2 0d 00 00       	callq  401c3c <read_line>
  400e7a:	48 89 c7             	mov    %rax,%rdi
  400e7d:	e8 ee 01 00 00       	callq  401070 <phase_5>
  400e82:	e8 7b 07 00 00       	callq  401602 <phase_defused>
  400e87:	bf 70 2a 40 00       	mov    $0x402a70,%edi
  400e8c:	e8 7f fc ff ff       	callq  400b10 <puts@plt>
  400e91:	e8 a6 0d 00 00       	callq  401c3c <read_line>
  400e96:	48 89 c7             	mov    %rax,%rdi
  400e99:	e8 1a 02 00 00       	callq  4010b8 <phase_6>
  400e9e:	e8 5f 07 00 00       	callq  401602 <phase_defused>
  400ea3:	bf 89 29 40 00       	mov    $0x402989,%edi
  400ea8:	e8 63 fc ff ff       	callq  400b10 <puts@plt>
  400ead:	b8 00 00 00 00       	mov    $0x0,%eax
  400eb2:	48 83 c4 08          	add    $0x8,%rsp
  400eb6:	5b                   	pop    %rbx
  400eb7:	5d                   	pop    %rbp
  400eb8:	c3                   	retq   
  400eb9:	0f 1f 80 00 00 00 00 	nopl   0x0(%rax)

0000000000400ec0 <phase_1>:
  400ec0:	53                   	push   %rbx
  400ec1:	48 89 fb             	mov    %rdi,%rbx
  400ec4:	80 7f 01 00          	cmpb   $0x0,0x1(%rdi)
  400ec8:	74 05                	je     400ecf <phase_1+0xf>
  400eca:	e8 6c 07 00 00       	callq  40163b <explode_bomb>
  400ecf:	80 3b 6a             	cmpb   $0x6a,(%rbx)
  400ed2:	74 05                	je     400ed9 <phase_1+0x19>
  400ed4:	e8 62 07 00 00       	callq  40163b <explode_bomb>
  400ed9:	5b                   	pop    %rbx
  400eda:	c3                   	retq   

0000000000400edb <func_switch>:
  400edb:	83 ff 07             	cmp    $0x7,%edi
  400ede:	77 33                	ja     400f13 <func_switch+0x38>
  400ee0:	89 ff                	mov    %edi,%edi
  400ee2:	ff 24 fd a0 2a 40 00 	jmpq   *0x402aa0(,%rdi,8)
  400ee9:	b8 4a 02 00 00       	mov    $0x24a,%eax
  400eee:	c3                   	retq   
  400eef:	b8 d6 01 00 00       	mov    $0x1d6,%eax
  400ef4:	c3                   	retq   
  400ef5:	b8 71 02 00 00       	mov    $0x271,%eax
  400efa:	c3                   	retq   
  400efb:	b8 ac 02 00 00       	mov    $0x2ac,%eax
  400f00:	c3                   	retq   
  400f01:	b8 4f 02 00 00       	mov    $0x24f,%eax
  400f06:	c3                   	retq   
  400f07:	b8 00 02 00 00       	mov    $0x200,%eax
  400f0c:	c3                   	retq   
  400f0d:	b8 ac 02 00 00       	mov    $0x2ac,%eax
  400f12:	c3                   	retq   
  400f13:	48 83 ec 08          	sub    $0x8,%rsp
  400f17:	e8 1f 07 00 00       	callq  40163b <explode_bomb>
  400f1c:	b8 00 00 00 00       	mov    $0x0,%eax
  400f21:	eb 06                	jmp    400f29 <func_switch+0x4e>
  400f23:	b8 36 00 00 00       	mov    $0x36,%eax
  400f28:	c3                   	retq   
  400f29:	48 83 c4 08          	add    $0x8,%rsp
  400f2d:	c3                   	retq   

0000000000400f2e <phase_2>:
  400f2e:	53                   	push   %rbx
  400f2f:	48 83 ec 10          	sub    $0x10,%rsp
  400f33:	c7 44 24 0c 00 00 00 	movl   $0x0,0xc(%rsp)
  400f3a:	00 
  400f3b:	c7 44 24 08 00 00 00 	movl   $0x0,0x8(%rsp)
  400f42:	00 
  400f43:	48 8d 54 24 08       	lea    0x8(%rsp),%rdx
  400f48:	48 8d 74 24 0c       	lea    0xc(%rsp),%rsi
  400f4d:	e8 c2 0c 00 00       	callq  401c14 <read_two_numbers>
  400f52:	8b 44 24 08          	mov    0x8(%rsp),%eax
  400f56:	39 44 24 0c          	cmp    %eax,0xc(%rsp)
  400f5a:	75 05                	jne    400f61 <phase_2+0x33>
  400f5c:	e8 da 06 00 00       	callq  40163b <explode_bomb>
  400f61:	8b 7c 24 0c          	mov    0xc(%rsp),%edi
  400f65:	e8 71 ff ff ff       	callq  400edb <func_switch>
  400f6a:	89 c3                	mov    %eax,%ebx
  400f6c:	8b 7c 24 08          	mov    0x8(%rsp),%edi
  400f70:	e8 66 ff ff ff       	callq  400edb <func_switch>
  400f75:	39 c3                	cmp    %eax,%ebx
  400f77:	74 05                	je     400f7e <phase_2+0x50>
  400f79:	e8 bd 06 00 00       	callq  40163b <explode_bomb>
  400f7e:	48 83 c4 10          	add    $0x10,%rsp
  400f82:	5b                   	pop    %rbx
  400f83:	c3                   	retq   

0000000000400f84 <phase_3>:
  400f84:	55                   	push   %rbp
  400f85:	53                   	push   %rbx
  400f86:	48 83 ec 28          	sub    $0x28,%rsp
  400f8a:	48 89 e6             	mov    %rsp,%rsi
  400f8d:	e8 40 0c 00 00       	callq  401bd2 <read_six_numbers>
  400f92:	83 3c 24 04          	cmpl   $0x4,(%rsp)
  400f96:	7f 05                	jg     400f9d <phase_3+0x19>
  400f98:	e8 9e 06 00 00       	callq  40163b <explode_bomb>
  400f9d:	8b 04 24             	mov    (%rsp),%eax
  400fa0:	bb 01 00 00 00       	mov    $0x1,%ebx
  400fa5:	eb 16                	jmp    400fbd <phase_3+0x39>
  400fa7:	48 63 d3             	movslq %ebx,%rdx
  400faa:	8b 2c 94             	mov    (%rsp,%rdx,4),%ebp
  400fad:	29 d8                	sub    %ebx,%eax
  400faf:	39 e8                	cmp    %ebp,%eax
  400fb1:	74 05                	je     400fb8 <phase_3+0x34>
  400fb3:	e8 83 06 00 00       	callq  40163b <explode_bomb>
  400fb8:	83 c3 01             	add    $0x1,%ebx
  400fbb:	89 e8                	mov    %ebp,%eax
  400fbd:	83 fb 05             	cmp    $0x5,%ebx
  400fc0:	7e e5                	jle    400fa7 <phase_3+0x23>
  400fc2:	89 05 54 36 20 00    	mov    %eax,0x203654(%rip)        # 60461c <last>
  400fc8:	48 83 c4 28          	add    $0x28,%rsp
  400fcc:	5b                   	pop    %rbx
  400fcd:	5d                   	pop    %rbp
  400fce:	c3                   	retq   

0000000000400fcf <phase_4>:
  400fcf:	48 83 ec 18          	sub    $0x18,%rsp
  400fd3:	48 8d 54 24 0c       	lea    0xc(%rsp),%rdx
  400fd8:	48 8d 74 24 08       	lea    0x8(%rsp),%rsi
  400fdd:	e8 32 0c 00 00       	callq  401c14 <read_two_numbers>
  400fe2:	8b 44 24 0c          	mov    0xc(%rsp),%eax
  400fe6:	83 e8 02             	sub    $0x2,%eax
  400fe9:	83 f8 02             	cmp    $0x2,%eax
  400fec:	76 05                	jbe    400ff3 <phase_4+0x24>
  400fee:	e8 48 06 00 00       	callq  40163b <explode_bomb>
  400ff3:	83 64 24 08 0f       	andl   $0xf,0x8(%rsp)
  400ff8:	b8 00 00 00 00       	mov    $0x0,%eax
  400ffd:	b9 00 00 00 00       	mov    $0x0,%ecx
  401002:	eb 17                	jmp    40101b <phase_4+0x4c>
  401004:	8b 54 24 08          	mov    0x8(%rsp),%edx
  401008:	01 d1                	add    %edx,%ecx
  40100a:	48 63 d2             	movslq %edx,%rdx
  40100d:	8b 14 95 e0 2a 40 00 	mov    0x402ae0(,%rdx,4),%edx
  401014:	89 54 24 08          	mov    %edx,0x8(%rsp)
  401018:	83 c0 01             	add    $0x1,%eax
  40101b:	3b 44 24 0c          	cmp    0xc(%rsp),%eax
  40101f:	7c e3                	jl     401004 <phase_4+0x35>
  401021:	83 f9 16             	cmp    $0x16,%ecx
  401024:	74 05                	je     40102b <phase_4+0x5c>
  401026:	e8 10 06 00 00       	callq  40163b <explode_bomb>
  40102b:	48 83 c4 18          	add    $0x18,%rsp
  40102f:	90                   	nop
  401030:	c3                   	retq   

0000000000401031 <func_rec>:
  401031:	48 83 ec 08          	sub    $0x8,%rsp
  401035:	89 d0                	mov    %edx,%eax
  401037:	29 f0                	sub    %esi,%eax
  401039:	89 c1                	mov    %eax,%ecx
  40103b:	c1 e9 1f             	shr    $0x1f,%ecx
  40103e:	01 c8                	add    %ecx,%eax
  401040:	d1 f8                	sar    %eax
  401042:	01 f0                	add    %esi,%eax
  401044:	39 f8                	cmp    %edi,%eax
  401046:	7e 0c                	jle    401054 <func_rec+0x23>
  401048:	8d 50 ff             	lea    -0x1(%rax),%edx
  40104b:	e8 e1 ff ff ff       	callq  401031 <func_rec>
  401050:	01 c0                	add    %eax,%eax
  401052:	eb 17                	jmp    40106b <func_rec+0x3a>
  401054:	39 f8                	cmp    %edi,%eax
  401056:	7d 0e                	jge    401066 <func_rec+0x35>
  401058:	8d 70 01             	lea    0x1(%rax),%esi
  40105b:	e8 d1 ff ff ff       	callq  401031 <func_rec>
  401060:	8d 44 00 01          	lea    0x1(%rax,%rax,1),%eax
  401064:	eb 05                	jmp    40106b <func_rec+0x3a>
  401066:	b8 00 00 00 00       	mov    $0x0,%eax
  40106b:	48 83 c4 08          	add    $0x8,%rsp
  40106f:	c3                   	retq   

0000000000401070 <phase_5>:
  401070:	48 83 ec 18          	sub    $0x18,%rsp
  401074:	48 8d 54 24 08       	lea    0x8(%rsp),%rdx
  401079:	48 8d 74 24 0c       	lea    0xc(%rsp),%rsi
  40107e:	e8 91 0b 00 00       	callq  401c14 <read_two_numbers>
  401083:	83 7c 24 0c 0e       	cmpl   $0xe,0xc(%rsp)
  401088:	76 05                	jbe    40108f <phase_5+0x1f>
  40108a:	e8 ac 05 00 00       	callq  40163b <explode_bomb>
  40108f:	ba 0e 00 00 00       	mov    $0xe,%edx
  401094:	be 00 00 00 00       	mov    $0x0,%esi
  401099:	8b 7c 24 0c          	mov    0xc(%rsp),%edi
  40109d:	e8 8f ff ff ff       	callq  401031 <func_rec>
  4010a2:	83 f8 02             	cmp    $0x2,%eax
  4010a5:	75 07                	jne    4010ae <phase_5+0x3e>
  4010a7:	83 7c 24 08 02       	cmpl   $0x2,0x8(%rsp)
  4010ac:	74 05                	je     4010b3 <phase_5+0x43>
  4010ae:	e8 88 05 00 00       	callq  40163b <explode_bomb>
  4010b3:	48 83 c4 18          	add    $0x18,%rsp
  4010b7:	c3                   	retq   

00000000004010b8 <phase_6>:
  4010b8:	41 54                	push   %r12
  4010ba:	55                   	push   %rbp
  4010bb:	53                   	push   %rbx
  4010bc:	48 83 ec 50          	sub    $0x50,%rsp
  4010c0:	48 8d 74 24 30       	lea    0x30(%rsp),%rsi
  4010c5:	e8 08 0b 00 00       	callq  401bd2 <read_six_numbers>
  4010ca:	bd 00 00 00 00       	mov    $0x0,%ebp
  4010cf:	eb 3d                	jmp    40110e <phase_6+0x56>
  4010d1:	48 63 c5             	movslq %ebp,%rax
  4010d4:	8b 44 84 30          	mov    0x30(%rsp,%rax,4),%eax
  4010d8:	83 e8 01             	sub    $0x1,%eax
  4010db:	83 f8 05             	cmp    $0x5,%eax
  4010de:	76 05                	jbe    4010e5 <phase_6+0x2d>
  4010e0:	e8 56 05 00 00       	callq  40163b <explode_bomb>
  4010e5:	44 8d 65 01          	lea    0x1(%rbp),%r12d
  4010e9:	44 89 e3             	mov    %r12d,%ebx
  4010ec:	48 63 ed             	movslq %ebp,%rbp
  4010ef:	eb 15                	jmp    401106 <phase_6+0x4e>
  4010f1:	48 63 c3             	movslq %ebx,%rax
  4010f4:	8b 44 84 30          	mov    0x30(%rsp,%rax,4),%eax
  4010f8:	39 44 ac 30          	cmp    %eax,0x30(%rsp,%rbp,4)
  4010fc:	75 05                	jne    401103 <phase_6+0x4b>
  4010fe:	e8 38 05 00 00       	callq  40163b <explode_bomb>
  401103:	83 c3 01             	add    $0x1,%ebx
  401106:	83 fb 05             	cmp    $0x5,%ebx
  401109:	7e e6                	jle    4010f1 <phase_6+0x39>
  40110b:	44 89 e5             	mov    %r12d,%ebp
  40110e:	83 fd 05             	cmp    $0x5,%ebp
  401111:	7e be                	jle    4010d1 <phase_6+0x19>
  401113:	b8 00 00 00 00       	mov    $0x0,%eax
  401118:	be 07 00 00 00       	mov    $0x7,%esi
  40111d:	eb 10                	jmp    40112f <phase_6+0x77>
  40111f:	48 63 d0             	movslq %eax,%rdx
  401122:	89 f1                	mov    %esi,%ecx
  401124:	2b 4c 94 30          	sub    0x30(%rsp,%rdx,4),%ecx
  401128:	89 4c 94 30          	mov    %ecx,0x30(%rsp,%rdx,4)
  40112c:	83 c0 01             	add    $0x1,%eax
  40112f:	83 f8 05             	cmp    $0x5,%eax
  401132:	7e eb                	jle    40111f <phase_6+0x67>
  401134:	be 00 00 00 00       	mov    $0x0,%esi
  401139:	eb 26                	jmp    401161 <phase_6+0xa9>
  40113b:	48 8b 52 08          	mov    0x8(%rdx),%rdx
  40113f:	83 c0 01             	add    $0x1,%eax
  401142:	eb 0d                	jmp    401151 <phase_6+0x99>
  401144:	b8 01 00 00 00       	mov    $0x1,%eax
  401149:	ba 60 41 60 00       	mov    $0x604160,%edx
  40114e:	48 63 ce             	movslq %esi,%rcx
  401151:	39 44 8c 30          	cmp    %eax,0x30(%rsp,%rcx,4)
  401155:	7f e4                	jg     40113b <phase_6+0x83>
  401157:	48 63 c6             	movslq %esi,%rax
  40115a:	48 89 14 c4          	mov    %rdx,(%rsp,%rax,8)
  40115e:	83 c6 01             	add    $0x1,%esi
  401161:	83 fe 05             	cmp    $0x5,%esi
  401164:	7e de                	jle    401144 <phase_6+0x8c>
  401166:	48 8b 1c 24          	mov    (%rsp),%rbx
  40116a:	48 89 d9             	mov    %rbx,%rcx
  40116d:	b8 01 00 00 00       	mov    $0x1,%eax
  401172:	eb 11                	jmp    401185 <phase_6+0xcd>
  401174:	48 63 d0             	movslq %eax,%rdx
  401177:	48 8b 14 d4          	mov    (%rsp,%rdx,8),%rdx
  40117b:	48 89 51 08          	mov    %rdx,0x8(%rcx)
  40117f:	83 c0 01             	add    $0x1,%eax
  401182:	48 89 d1             	mov    %rdx,%rcx
  401185:	83 f8 05             	cmp    $0x5,%eax
  401188:	7e ea                	jle    401174 <phase_6+0xbc>
  40118a:	48 c7 41 08 00 00 00 	movq   $0x0,0x8(%rcx)
  401191:	00 
  401192:	bd 00 00 00 00       	mov    $0x0,%ebp
  401197:	eb 16                	jmp    4011af <phase_6+0xf7>
  401199:	48 8b 43 08          	mov    0x8(%rbx),%rax
  40119d:	8b 00                	mov    (%rax),%eax
  40119f:	39 03                	cmp    %eax,(%rbx)
  4011a1:	7d 05                	jge    4011a8 <phase_6+0xf0>
  4011a3:	e8 93 04 00 00       	callq  40163b <explode_bomb>
  4011a8:	48 8b 5b 08          	mov    0x8(%rbx),%rbx
  4011ac:	83 c5 01             	add    $0x1,%ebp
  4011af:	83 fd 04             	cmp    $0x4,%ebp
  4011b2:	7e e5                	jle    401199 <phase_6+0xe1>
  4011b4:	8b 05 62 34 20 00    	mov    0x203462(%rip),%eax        # 60461c <last>
  4011ba:	83 f8 21             	cmp    $0x21,%eax
  4011bd:	75 05                	jne    4011c4 <phase_6+0x10c>
  4011bf:	e8 77 04 00 00       	callq  40163b <explode_bomb>
  4011c4:	48 83 c4 50          	add    $0x50,%rsp
  4011c8:	5b                   	pop    %rbx
  4011c9:	5d                   	pop    %rbp
  4011ca:	41 5c                	pop    %r12
  4011cc:	c3                   	retq   

00000000004011cd <s3cret_ph4se>:
  4011cd:	41 56                	push   %r14
  4011cf:	41 55                	push   %r13
  4011d1:	41 54                	push   %r12
  4011d3:	55                   	push   %rbp
  4011d4:	53                   	push   %rbx
  4011d5:	e8 62 0a 00 00       	callq  401c3c <read_line>
  4011da:	49 89 c5             	mov    %rax,%r13
  4011dd:	bd 01 00 00 00       	mov    $0x1,%ebp
  4011e2:	41 bc 01 00 00 00    	mov    $0x1,%r12d
  4011e8:	ba 00 00 00 00       	mov    $0x0,%edx
  4011ed:	eb 6d                	jmp    40125c <s3cret_ph4se+0x8f>
  4011ef:	8d 5a 01             	lea    0x1(%rdx),%ebx
  4011f2:	48 63 d2             	movslq %edx,%rdx
  4011f5:	41 0f b6 54 15 00    	movzbl 0x0(%r13,%rdx,1),%edx
  4011fb:	80 fa 7a             	cmp    $0x7a,%dl
  4011fe:	75 05                	jne    401205 <s3cret_ph4se+0x38>
  401200:	83 ed 01             	sub    $0x1,%ebp
  401203:	eb 25                	jmp    40122a <s3cret_ph4se+0x5d>
  401205:	80 fa 72             	cmp    $0x72,%dl
  401208:	75 06                	jne    401210 <s3cret_ph4se+0x43>
  40120a:	41 83 ec 01          	sub    $0x1,%r12d
  40120e:	eb 1a                	jmp    40122a <s3cret_ph4se+0x5d>
  401210:	80 fa 61             	cmp    $0x61,%dl
  401213:	75 05                	jne    40121a <s3cret_ph4se+0x4d>
  401215:	83 c5 01             	add    $0x1,%ebp
  401218:	eb 10                	jmp    40122a <s3cret_ph4se+0x5d>
  40121a:	80 fa 79             	cmp    $0x79,%dl
  40121d:	75 06                	jne    401225 <s3cret_ph4se+0x58>
  40121f:	41 83 c4 01          	add    $0x1,%r12d
  401223:	eb 05                	jmp    40122a <s3cret_ph4se+0x5d>
  401225:	e8 11 04 00 00       	callq  40163b <explode_bomb>
  40122a:	44 89 e0             	mov    %r12d,%eax
  40122d:	89 ea                	mov    %ebp,%edx
  40122f:	44 0f b6 b4 d0 20 41 	movzbl 0x604120(%rax,%rdx,8),%r14d
  401236:	60 00 
  401238:	41 80 fe ff          	cmp    $0xff,%r14b
  40123c:	75 05                	jne    401243 <s3cret_ph4se+0x76>
  40123e:	e8 f8 03 00 00       	callq  40163b <explode_bomb>
  401243:	41 80 fe 21          	cmp    $0x21,%r14b
  401247:	75 11                	jne    40125a <s3cret_ph4se+0x8d>
  401249:	bf 20 2b 40 00       	mov    $0x402b20,%edi
  40124e:	e8 bd f8 ff ff       	callq  400b10 <puts@plt>
  401253:	e8 aa 03 00 00       	callq  401602 <phase_defused>
  401258:	eb 0d                	jmp    401267 <s3cret_ph4se+0x9a>
  40125a:	89 da                	mov    %ebx,%edx
  40125c:	83 fa 63             	cmp    $0x63,%edx
  40125f:	90                   	nop
  401260:	7e 8d                	jle    4011ef <s3cret_ph4se+0x22>
  401262:	e8 d4 03 00 00       	callq  40163b <explode_bomb>
  401267:	5b                   	pop    %rbx
  401268:	5d                   	pop    %rbp
  401269:	41 5c                	pop    %r12
  40126b:	41 5d                	pop    %r13
  40126d:	41 5e                	pop    %r14
  40126f:	c3                   	retq   

0000000000401270 <sig_handler>:
  401270:	48 83 ec 08          	sub    $0x8,%rsp
  401274:	bf 48 2b 40 00       	mov    $0x402b48,%edi
  401279:	e8 92 f8 ff ff       	callq  400b10 <puts@plt>
  40127e:	bf 03 00 00 00       	mov    $0x3,%edi
  401283:	e8 d8 f9 ff ff       	callq  400c60 <sleep@plt>
  401288:	bf cb 30 40 00       	mov    $0x4030cb,%edi
  40128d:	b8 00 00 00 00       	mov    $0x0,%eax
  401292:	e8 99 f8 ff ff       	callq  400b30 <printf@plt>
  401297:	48 8b 3d 62 33 20 00 	mov    0x203362(%rip),%rdi        # 604600 <stdout@@GLIBC_2.2.5>
  40129e:	e8 3d f9 ff ff       	callq  400be0 <fflush@plt>
  4012a3:	bf 01 00 00 00       	mov    $0x1,%edi
  4012a8:	e8 b3 f9 ff ff       	callq  400c60 <sleep@plt>
  4012ad:	bf d3 30 40 00       	mov    $0x4030d3,%edi
  4012b2:	e8 59 f8 ff ff       	callq  400b10 <puts@plt>
  4012b7:	bf 10 00 00 00       	mov    $0x10,%edi
  4012bc:	e8 7f f9 ff ff       	callq  400c40 <exit@plt>

00000000004012c1 <invalid_phase>:
  4012c1:	48 83 ec 08          	sub    $0x8,%rsp
  4012c5:	48 89 fe             	mov    %rdi,%rsi
  4012c8:	bf db 30 40 00       	mov    $0x4030db,%edi
  4012cd:	b8 00 00 00 00       	mov    $0x0,%eax
  4012d2:	e8 59 f8 ff ff       	callq  400b30 <printf@plt>
  4012d7:	bf 08 00 00 00       	mov    $0x8,%edi
  4012dc:	e8 5f f9 ff ff       	callq  400c40 <exit@plt>

00000000004012e1 <string_length>:
  4012e1:	b8 00 00 00 00       	mov    $0x0,%eax
  4012e6:	eb 0e                	jmp    4012f6 <string_length+0x15>
  4012e8:	48 83 c7 01          	add    $0x1,%rdi
  4012ec:	83 c0 01             	add    $0x1,%eax
  4012ef:	3d 0f 27 00 00       	cmp    $0x270f,%eax
  4012f4:	7f 05                	jg     4012fb <string_length+0x1a>
  4012f6:	80 3f 00             	cmpb   $0x0,(%rdi)
  4012f9:	75 ed                	jne    4012e8 <string_length+0x7>
  4012fb:	f3 c3                	repz retq 

00000000004012fd <strings_not_equal>:
  4012fd:	41 54                	push   %r12
  4012ff:	55                   	push   %rbp
  401300:	53                   	push   %rbx
  401301:	48 89 fb             	mov    %rdi,%rbx
  401304:	48 89 f5             	mov    %rsi,%rbp
  401307:	e8 d5 ff ff ff       	callq  4012e1 <string_length>
  40130c:	41 89 c4             	mov    %eax,%r12d
  40130f:	48 89 ef             	mov    %rbp,%rdi
  401312:	e8 ca ff ff ff       	callq  4012e1 <string_length>
  401317:	41 39 c4             	cmp    %eax,%r12d
  40131a:	75 1d                	jne    401339 <strings_not_equal+0x3c>
  40131c:	eb 0d                	jmp    40132b <strings_not_equal+0x2e>
  40131e:	3a 45 00             	cmp    0x0(%rbp),%al
  401321:	75 1d                	jne    401340 <strings_not_equal+0x43>
  401323:	48 83 c3 01          	add    $0x1,%rbx
  401327:	48 83 c5 01          	add    $0x1,%rbp
  40132b:	0f b6 03             	movzbl (%rbx),%eax
  40132e:	84 c0                	test   %al,%al
  401330:	75 ec                	jne    40131e <strings_not_equal+0x21>
  401332:	b8 00 00 00 00       	mov    $0x0,%eax
  401337:	eb 0c                	jmp    401345 <strings_not_equal+0x48>
  401339:	b8 01 00 00 00       	mov    $0x1,%eax
  40133e:	eb 05                	jmp    401345 <strings_not_equal+0x48>
  401340:	b8 01 00 00 00       	mov    $0x1,%eax
  401345:	5b                   	pop    %rbx
  401346:	5d                   	pop    %rbp
  401347:	41 5c                	pop    %r12
  401349:	c3                   	retq   

000000000040134a <initialize_bomb>:
  40134a:	53                   	push   %rbx
  40134b:	48 81 ec 40 20 00 00 	sub    $0x2040,%rsp
  401352:	be 70 12 40 00       	mov    $0x401270,%esi
  401357:	bf 02 00 00 00       	mov    $0x2,%edi
  40135c:	e8 2f f8 ff ff       	callq  400b90 <signal@plt>
  401361:	be 40 00 00 00       	mov    $0x40,%esi
  401366:	48 8d bc 24 00 20 00 	lea    0x2000(%rsp),%rdi
  40136d:	00 
  40136e:	e8 ad f8 ff ff       	callq  400c20 <gethostname@plt>
  401373:	85 c0                	test   %eax,%eax
  401375:	74 2a                	je     4013a1 <initialize_bomb+0x57>
  401377:	bf 80 2b 40 00       	mov    $0x402b80,%edi
  40137c:	e8 8f f7 ff ff       	callq  400b10 <puts@plt>
  401381:	bf 08 00 00 00       	mov    $0x8,%edi
  401386:	e8 b5 f8 ff ff       	callq  400c40 <exit@plt>
  40138b:	48 8d b4 24 00 20 00 	lea    0x2000(%rsp),%rsi
  401392:	00 
  401393:	e8 48 f7 ff ff       	callq  400ae0 <strcasecmp@plt>
  401398:	85 c0                	test   %eax,%eax
  40139a:	74 21                	je     4013bd <initialize_bomb+0x73>
  40139c:	83 c3 01             	add    $0x1,%ebx
  40139f:	eb 05                	jmp    4013a6 <initialize_bomb+0x5c>
  4013a1:	bb 00 00 00 00       	mov    $0x0,%ebx
  4013a6:	48 63 c3             	movslq %ebx,%rax
  4013a9:	48 8b 3c c5 00 42 60 	mov    0x604200(,%rax,8),%rdi
  4013b0:	00 
  4013b1:	48 85 ff             	test   %rdi,%rdi
  4013b4:	75 d5                	jne    40138b <initialize_bomb+0x41>
  4013b6:	b8 00 00 00 00       	mov    $0x0,%eax
  4013bb:	eb 05                	jmp    4013c2 <initialize_bomb+0x78>
  4013bd:	b8 01 00 00 00       	mov    $0x1,%eax
  4013c2:	85 c0                	test   %eax,%eax
  4013c4:	75 14                	jne    4013da <initialize_bomb+0x90>
  4013c6:	bf b8 2b 40 00       	mov    $0x402bb8,%edi
  4013cb:	e8 40 f7 ff ff       	callq  400b10 <puts@plt>
  4013d0:	bf 08 00 00 00       	mov    $0x8,%edi
  4013d5:	e8 66 f8 ff ff       	callq  400c40 <exit@plt>
  4013da:	48 89 e7             	mov    %rsp,%rdi
  4013dd:	e8 c9 12 00 00       	callq  4026ab <init_driver>
  4013e2:	85 c0                	test   %eax,%eax
  4013e4:	79 1c                	jns    401402 <initialize_bomb+0xb8>
  4013e6:	48 89 e6             	mov    %rsp,%rsi
  4013e9:	bf ec 30 40 00       	mov    $0x4030ec,%edi
  4013ee:	b8 00 00 00 00       	mov    $0x0,%eax
  4013f3:	e8 38 f7 ff ff       	callq  400b30 <printf@plt>
  4013f8:	bf 08 00 00 00       	mov    $0x8,%edi
  4013fd:	e8 3e f8 ff ff       	callq  400c40 <exit@plt>
  401402:	48 81 c4 40 20 00 00 	add    $0x2040,%rsp
  401409:	5b                   	pop    %rbx
  40140a:	c3                   	retq   

000000000040140b <welcome_message>:
  40140b:	83 ff 01             	cmp    $0x1,%edi
  40140e:	0f 85 a8 00 00 00    	jne    4014bc <welcome_message+0xb1>
  401414:	48 83 ec 08          	sub    $0x8,%rsp
  401418:	bf f0 2b 40 00       	mov    $0x402bf0,%edi
  40141d:	e8 ee f6 ff ff       	callq  400b10 <puts@plt>
  401422:	bf 30 2c 40 00       	mov    $0x402c30,%edi
  401427:	e8 e4 f6 ff ff       	callq  400b10 <puts@plt>
  40142c:	bf 70 2c 40 00       	mov    $0x402c70,%edi
  401431:	e8 da f6 ff ff       	callq  400b10 <puts@plt>
  401436:	bf b0 2c 40 00       	mov    $0x402cb0,%edi
  40143b:	e8 d0 f6 ff ff       	callq  400b10 <puts@plt>
  401440:	bf f0 2c 40 00       	mov    $0x402cf0,%edi
  401445:	e8 c6 f6 ff ff       	callq  400b10 <puts@plt>
  40144a:	bf 30 2d 40 00       	mov    $0x402d30,%edi
  40144f:	e8 bc f6 ff ff       	callq  400b10 <puts@plt>
  401454:	bf 70 2d 40 00       	mov    $0x402d70,%edi
  401459:	e8 b2 f6 ff ff       	callq  400b10 <puts@plt>
  40145e:	bf a8 2d 40 00       	mov    $0x402da8,%edi
  401463:	e8 a8 f6 ff ff       	callq  400b10 <puts@plt>
  401468:	bf e0 2d 40 00       	mov    $0x402de0,%edi
  40146d:	e8 9e f6 ff ff       	callq  400b10 <puts@plt>
  401472:	bf 20 2e 40 00       	mov    $0x402e20,%edi
  401477:	e8 94 f6 ff ff       	callq  400b10 <puts@plt>
  40147c:	bf 60 2e 40 00       	mov    $0x402e60,%edi
  401481:	e8 8a f6 ff ff       	callq  400b10 <puts@plt>
  401486:	bf a0 2e 40 00       	mov    $0x402ea0,%edi
  40148b:	e8 80 f6 ff ff       	callq  400b10 <puts@plt>
  401490:	bf e0 2e 40 00       	mov    $0x402ee0,%edi
  401495:	e8 76 f6 ff ff       	callq  400b10 <puts@plt>
  40149a:	bf 20 2f 40 00       	mov    $0x402f20,%edi
  40149f:	e8 6c f6 ff ff       	callq  400b10 <puts@plt>
  4014a4:	bf 60 2f 40 00       	mov    $0x402f60,%edi
  4014a9:	e8 62 f6 ff ff       	callq  400b10 <puts@plt>
  4014ae:	bf a0 2f 40 00       	mov    $0x402fa0,%edi
  4014b3:	e8 58 f6 ff ff       	callq  400b10 <puts@plt>
  4014b8:	48 83 c4 08          	add    $0x8,%rsp
  4014bc:	f3 c3                	repz retq 

00000000004014be <initialize_bomb_solve>:
  4014be:	f3 c3                	repz retq 

00000000004014c0 <blank_line>:
  4014c0:	55                   	push   %rbp
  4014c1:	53                   	push   %rbx
  4014c2:	48 83 ec 08          	sub    $0x8,%rsp
  4014c6:	48 89 fb             	mov    %rdi,%rbx
  4014c9:	eb 17                	jmp    4014e2 <blank_line+0x22>
  4014cb:	e8 a0 f7 ff ff       	callq  400c70 <__ctype_b_loc@plt>
  4014d0:	48 8b 00             	mov    (%rax),%rax
  4014d3:	48 83 c3 01          	add    $0x1,%rbx
  4014d7:	48 0f be ed          	movsbq %bpl,%rbp
  4014db:	f6 44 68 01 20       	testb  $0x20,0x1(%rax,%rbp,2)
  4014e0:	74 0f                	je     4014f1 <blank_line+0x31>
  4014e2:	0f b6 2b             	movzbl (%rbx),%ebp
  4014e5:	40 84 ed             	test   %bpl,%bpl
  4014e8:	75 e1                	jne    4014cb <blank_line+0xb>
  4014ea:	b8 01 00 00 00       	mov    $0x1,%eax
  4014ef:	eb 05                	jmp    4014f6 <blank_line+0x36>
  4014f1:	b8 00 00 00 00       	mov    $0x0,%eax
  4014f6:	48 83 c4 08          	add    $0x8,%rsp
  4014fa:	5b                   	pop    %rbx
  4014fb:	5d                   	pop    %rbp
  4014fc:	c3                   	retq   

00000000004014fd <skip>:
  4014fd:	53                   	push   %rbx
  4014fe:	48 63 05 1b 31 20 00 	movslq 0x20311b(%rip),%rax        # 604620 <num_input_strings>
  401505:	48 8d 3c 80          	lea    (%rax,%rax,4),%rdi
  401509:	48 c1 e7 04          	shl    $0x4,%rdi
  40150d:	48 81 c7 40 46 60 00 	add    $0x604640,%rdi
  401514:	48 8b 15 0d 31 20 00 	mov    0x20310d(%rip),%rdx        # 604628 <infile>
  40151b:	be 50 00 00 00       	mov    $0x50,%esi
  401520:	e8 5b f6 ff ff       	callq  400b80 <fgets@plt>
  401525:	48 89 c3             	mov    %rax,%rbx
  401528:	48 85 c0             	test   %rax,%rax
  40152b:	74 0c                	je     401539 <skip+0x3c>
  40152d:	48 89 c7             	mov    %rax,%rdi
  401530:	e8 8b ff ff ff       	callq  4014c0 <blank_line>
  401535:	85 c0                	test   %eax,%eax
  401537:	75 c5                	jne    4014fe <skip+0x1>
  401539:	48 89 d8             	mov    %rbx,%rax
  40153c:	5b                   	pop    %rbx
  40153d:	c3                   	retq   

000000000040153e <send_msg>:
  40153e:	48 81 ec 08 40 00 00 	sub    $0x4008,%rsp
  401545:	89 fe                	mov    %edi,%esi
  401547:	44 8b 05 d2 30 20 00 	mov    0x2030d2(%rip),%r8d        # 604620 <num_input_strings>
  40154e:	41 8d 40 ff          	lea    -0x1(%r8),%eax
  401552:	48 98                	cltq   
  401554:	4c 8d 0c 80          	lea    (%rax,%rax,4),%r9
  401558:	49 c1 e1 04          	shl    $0x4,%r9
  40155c:	49 81 c1 40 46 60 00 	add    $0x604640,%r9
  401563:	4c 89 cf             	mov    %r9,%rdi
  401566:	b8 00 00 00 00       	mov    $0x0,%eax
  40156b:	48 c7 c1 ff ff ff ff 	mov    $0xffffffffffffffff,%rcx
  401572:	f2 ae                	repnz scas %es:(%rdi),%al
  401574:	48 f7 d1             	not    %rcx
  401577:	48 83 c1 63          	add    $0x63,%rcx
  40157b:	48 81 f9 00 20 00 00 	cmp    $0x2000,%rcx
  401582:	76 14                	jbe    401598 <send_msg+0x5a>
  401584:	bf e0 2f 40 00       	mov    $0x402fe0,%edi
  401589:	e8 a2 f5 ff ff       	callq  400b30 <printf@plt>
  40158e:	bf 08 00 00 00       	mov    $0x8,%edi
  401593:	e8 a8 f6 ff ff       	callq  400c40 <exit@plt>
  401598:	85 f6                	test   %esi,%esi
  40159a:	74 07                	je     4015a3 <send_msg+0x65>
  40159c:	b9 06 31 40 00       	mov    $0x403106,%ecx
  4015a1:	eb 05                	jmp    4015a8 <send_msg+0x6a>
  4015a3:	b9 0e 31 40 00       	mov    $0x40310e,%ecx
  4015a8:	8b 15 32 2c 20 00    	mov    0x202c32(%rip),%edx        # 6041e0 <bomb_id>
  4015ae:	be 17 31 40 00       	mov    $0x403117,%esi
  4015b3:	48 8d bc 24 00 20 00 	lea    0x2000(%rsp),%rdi
  4015ba:	00 
  4015bb:	b8 00 00 00 00       	mov    $0x0,%eax
  4015c0:	e8 6b f6 ff ff       	callq  400c30 <sprintf@plt>
  4015c5:	49 89 e0             	mov    %rsp,%r8
  4015c8:	b9 00 00 00 00       	mov    $0x0,%ecx
  4015cd:	48 8d 94 24 00 20 00 	lea    0x2000(%rsp),%rdx
  4015d4:	00 
  4015d5:	be c0 41 60 00       	mov    $0x6041c0,%esi
  4015da:	bf d5 41 60 00       	mov    $0x6041d5,%edi
  4015df:	e8 65 12 00 00       	callq  402849 <driver_post>
  4015e4:	85 c0                	test   %eax,%eax
  4015e6:	79 12                	jns    4015fa <send_msg+0xbc>
  4015e8:	48 89 e7             	mov    %rsp,%rdi
  4015eb:	e8 20 f5 ff ff       	callq  400b10 <puts@plt>
  4015f0:	bf 00 00 00 00       	mov    $0x0,%edi
  4015f5:	e8 46 f6 ff ff       	callq  400c40 <exit@plt>
  4015fa:	48 81 c4 08 40 00 00 	add    $0x4008,%rsp
  401601:	c3                   	retq   

0000000000401602 <phase_defused>:
  401602:	48 83 ec 08          	sub    $0x8,%rsp
  401606:	bf 01 00 00 00       	mov    $0x1,%edi
  40160b:	e8 2e ff ff ff       	callq  40153e <send_msg>
  401610:	83 3d 09 30 20 00 05 	cmpl   $0x5,0x203009(%rip)        # 604620 <num_input_strings>
  401617:	7e 1d                	jle    401636 <phase_defused+0x34>
  401619:	83 3d fc 2f 20 00 21 	cmpl   $0x21,0x202ffc(%rip)        # 60461c <last>
  401620:	74 14                	je     401636 <phase_defused+0x34>
  401622:	bf 08 30 40 00       	mov    $0x403008,%edi
  401627:	e8 e4 f4 ff ff       	callq  400b10 <puts@plt>
  40162c:	bf 38 30 40 00       	mov    $0x403038,%edi
  401631:	e8 da f4 ff ff       	callq  400b10 <puts@plt>
  401636:	48 83 c4 08          	add    $0x8,%rsp
  40163a:	c3                   	retq   

000000000040163b <explode_bomb>:
  40163b:	48 81 ec d8 00 00 00 	sub    $0xd8,%rsp
  401642:	83 3d d7 2f 20 00 06 	cmpl   $0x6,0x202fd7(%rip)        # 604620 <num_input_strings>
  401649:	77 61                	ja     4016ac <explode_bomb+0x71>
  40164b:	8b 05 cf 2f 20 00    	mov    0x202fcf(%rip),%eax        # 604620 <num_input_strings>
  401651:	ff 24 c5 10 33 40 00 	jmpq   *0x403310(,%rax,8)
  401658:	bf 23 31 40 00       	mov    $0x403123,%edi
  40165d:	e8 ae f4 ff ff       	callq  400b10 <puts@plt>
  401662:	eb 48                	jmp    4016ac <explode_bomb+0x71>
  401664:	bf 80 30 40 00       	mov    $0x403080,%edi
  401669:	e8 a2 f4 ff ff       	callq  400b10 <puts@plt>
  40166e:	66 90                	xchg   %ax,%ax
  401670:	eb 3a                	jmp    4016ac <explode_bomb+0x71>
  401672:	bf 28 31 40 00       	mov    $0x403128,%edi
  401677:	e8 94 f4 ff ff       	callq  400b10 <puts@plt>
  40167c:	eb 2e                	jmp    4016ac <explode_bomb+0x71>
  40167e:	bf 3d 31 40 00       	mov    $0x40313d,%edi
  401683:	e8 88 f4 ff ff       	callq  400b10 <puts@plt>
  401688:	eb 22                	jmp    4016ac <explode_bomb+0x71>
  40168a:	bf 53 31 40 00       	mov    $0x403153,%edi
  40168f:	e8 7c f4 ff ff       	callq  400b10 <puts@plt>
  401694:	eb 16                	jmp    4016ac <explode_bomb+0x71>
  401696:	bf 6a 31 40 00       	mov    $0x40316a,%edi
  40169b:	e8 70 f4 ff ff       	callq  400b10 <puts@plt>
  4016a0:	eb 0a                	jmp    4016ac <explode_bomb+0x71>
  4016a2:	bf 73 31 40 00       	mov    $0x403173,%edi
  4016a7:	e8 64 f4 ff ff       	callq  400b10 <puts@plt>
  4016ac:	48 89 e7             	mov    %rsp,%rdi
  4016af:	b9 19 00 00 00       	mov    $0x19,%ecx
  4016b4:	b8 00 00 00 00       	mov    $0x0,%eax
  4016b9:	f3 48 ab             	rep stos %rax,%es:(%rdi)
  4016bc:	c6 04 24 53          	movb   $0x53,(%rsp)
  4016c0:	c6 44 24 01 6f       	movb   $0x6f,0x1(%rsp)
  4016c5:	c6 44 24 02 20       	movb   $0x20,0x2(%rsp)
  4016ca:	c6 44 24 03 79       	movb   $0x79,0x3(%rsp)
  4016cf:	c6 44 24 04 6f       	movb   $0x6f,0x4(%rsp)
  4016d4:	c6 44 24 05 75       	movb   $0x75,0x5(%rsp)
  4016d9:	c6 44 24 06 20       	movb   $0x20,0x6(%rsp)
  4016de:	c6 44 24 07 6d       	movb   $0x6d,0x7(%rsp)
  4016e3:	c6 44 24 08 61       	movb   $0x61,0x8(%rsp)
  4016e8:	c6 44 24 09 64       	movb   $0x64,0x9(%rsp)
  4016ed:	c6 44 24 0a 65       	movb   $0x65,0xa(%rsp)
  4016f2:	c6 44 24 0b 20       	movb   $0x20,0xb(%rsp)
  4016f7:	c6 44 24 0c 69       	movb   $0x69,0xc(%rsp)
  4016fc:	c6 44 24 0d 74       	movb   $0x74,0xd(%rsp)
  401701:	c6 44 24 0e 20       	movb   $0x20,0xe(%rsp)
  401706:	c6 44 24 0f 74       	movb   $0x74,0xf(%rsp)
  40170b:	c6 44 24 10 6f       	movb   $0x6f,0x10(%rsp)
  401710:	c6 44 24 11 20       	movb   $0x20,0x11(%rsp)
  401715:	c6 44 24 12 74       	movb   $0x74,0x12(%rsp)
  40171a:	c6 44 24 13 68       	movb   $0x68,0x13(%rsp)
  40171f:	c6 44 24 14 65       	movb   $0x65,0x14(%rsp)
  401724:	c6 44 24 15 20       	movb   $0x20,0x15(%rsp)
  401729:	c6 44 24 16 73       	movb   $0x73,0x16(%rsp)
  40172e:	c6 44 24 17 33       	movb   $0x33,0x17(%rsp)
  401733:	c6 44 24 18 63       	movb   $0x63,0x18(%rsp)
  401738:	c6 44 24 19 72       	movb   $0x72,0x19(%rsp)
  40173d:	c6 44 24 1a 65       	movb   $0x65,0x1a(%rsp)
  401742:	c6 44 24 1b 74       	movb   $0x74,0x1b(%rsp)
  401747:	c6 44 24 1c 20       	movb   $0x20,0x1c(%rsp)
  40174c:	c6 44 24 1d 70       	movb   $0x70,0x1d(%rsp)
  401751:	c6 44 24 1e 68       	movb   $0x68,0x1e(%rsp)
  401756:	c6 44 24 1f 61       	movb   $0x61,0x1f(%rsp)
  40175b:	c6 44 24 20 73       	movb   $0x73,0x20(%rsp)
  401760:	c6 44 24 21 65       	movb   $0x65,0x21(%rsp)
  401765:	c6 44 24 22 2e       	movb   $0x2e,0x22(%rsp)
  40176a:	c6 44 24 23 20       	movb   $0x20,0x23(%rsp)
  40176f:	c6 44 24 24 20       	movb   $0x20,0x24(%rsp)
  401774:	c6 44 24 25 4e       	movb   $0x4e,0x25(%rsp)
  401779:	c6 44 24 26 69       	movb   $0x69,0x26(%rsp)
  40177e:	c6 44 24 27 63       	movb   $0x63,0x27(%rsp)
  401783:	c6 44 24 28 65       	movb   $0x65,0x28(%rsp)
  401788:	c6 44 24 29 2c       	movb   $0x2c,0x29(%rsp)
  40178d:	c6 44 24 2a 20       	movb   $0x20,0x2a(%rsp)
  401792:	c6 44 24 2b 62       	movb   $0x62,0x2b(%rsp)
  401797:	c6 44 24 2c 75       	movb   $0x75,0x2c(%rsp)
  40179c:	c6 44 24 2d 74       	movb   $0x74,0x2d(%rsp)
  4017a1:	c6 44 24 2e 0a       	movb   $0xa,0x2e(%rsp)
  4017a6:	c6 44 24 2f 64       	movb   $0x64,0x2f(%rsp)
  4017ab:	c6 44 24 30 6f       	movb   $0x6f,0x30(%rsp)
  4017b0:	c6 44 24 31 6e       	movb   $0x6e,0x31(%rsp)
  4017b5:	c6 44 24 32 27       	movb   $0x27,0x32(%rsp)
  4017ba:	c6 44 24 33 74       	movb   $0x74,0x33(%rsp)
  4017bf:	c6 44 24 34 20       	movb   $0x20,0x34(%rsp)
  4017c4:	c6 44 24 35 74       	movb   $0x74,0x35(%rsp)
  4017c9:	c6 44 24 36 65       	movb   $0x65,0x36(%rsp)
  4017ce:	c6 44 24 37 6c       	movb   $0x6c,0x37(%rsp)
  4017d3:	c6 44 24 38 6c       	movb   $0x6c,0x38(%rsp)
  4017d8:	c6 44 24 39 20       	movb   $0x20,0x39(%rsp)
  4017dd:	c6 44 24 3a 61       	movb   $0x61,0x3a(%rsp)
  4017e2:	c6 44 24 3b 6e       	movb   $0x6e,0x3b(%rsp)
  4017e7:	c6 44 24 3c 79       	movb   $0x79,0x3c(%rsp)
  4017ec:	c6 44 24 3d 6f       	movb   $0x6f,0x3d(%rsp)
  4017f1:	c6 44 24 3e 6e       	movb   $0x6e,0x3e(%rsp)
  4017f6:	c6 44 24 3f 65       	movb   $0x65,0x3f(%rsp)
  4017fb:	c6 44 24 40 20       	movb   $0x20,0x40(%rsp)
  401800:	c6 44 24 41 61       	movb   $0x61,0x41(%rsp)
  401805:	c6 44 24 42 62       	movb   $0x62,0x42(%rsp)
  40180a:	c6 44 24 43 6f       	movb   $0x6f,0x43(%rsp)
  40180f:	c6 44 24 44 75       	movb   $0x75,0x44(%rsp)
  401814:	c6 44 24 45 74       	movb   $0x74,0x45(%rsp)
  401819:	c6 44 24 46 20       	movb   $0x20,0x46(%rsp)
  40181e:	c6 44 24 47 69       	movb   $0x69,0x47(%rsp)
  401823:	c6 44 24 48 74       	movb   $0x74,0x48(%rsp)
  401828:	c6 44 24 49 20       	movb   $0x20,0x49(%rsp)
  40182d:	c6 44 24 4a 28       	movb   $0x28,0x4a(%rsp)
  401832:	c6 44 24 4b 65       	movb   $0x65,0x4b(%rsp)
  401837:	c6 44 24 4c 73       	movb   $0x73,0x4c(%rsp)
  40183c:	c6 44 24 4d 70       	movb   $0x70,0x4d(%rsp)
  401841:	c6 44 24 4e 65       	movb   $0x65,0x4e(%rsp)
  401846:	c6 44 24 4f 63       	movb   $0x63,0x4f(%rsp)
  40184b:	c6 44 24 50 69       	movb   $0x69,0x50(%rsp)
  401850:	c6 44 24 51 61       	movb   $0x61,0x51(%rsp)
  401855:	c6 44 24 52 6c       	movb   $0x6c,0x52(%rsp)
  40185a:	c6 44 24 53 6c       	movb   $0x6c,0x53(%rsp)
  40185f:	c6 44 24 54 79       	movb   $0x79,0x54(%rsp)
  401864:	c6 44 24 55 20       	movb   $0x20,0x55(%rsp)
  401869:	c6 44 24 56 6f       	movb   $0x6f,0x56(%rsp)
  40186e:	c6 44 24 57 6e       	movb   $0x6e,0x57(%rsp)
  401873:	c6 44 24 58 20       	movb   $0x20,0x58(%rsp)
  401878:	c6 44 24 59 50       	movb   $0x50,0x59(%rsp)
  40187d:	c6 44 24 5a 69       	movb   $0x69,0x5a(%rsp)
  401882:	c6 44 24 5b 61       	movb   $0x61,0x5b(%rsp)
  401887:	c6 44 24 5c 7a       	movb   $0x7a,0x5c(%rsp)
  40188c:	c6 44 24 5d 7a       	movb   $0x7a,0x5d(%rsp)
  401891:	c6 44 24 5e 61       	movb   $0x61,0x5e(%rsp)
  401896:	c6 44 24 5f 29       	movb   $0x29,0x5f(%rsp)
  40189b:	c6 44 24 60 2e       	movb   $0x2e,0x60(%rsp)
  4018a0:	c6 44 24 61 0a       	movb   $0xa,0x61(%rsp)
  4018a5:	c6 44 24 62 49       	movb   $0x49,0x62(%rsp)
  4018aa:	c6 44 24 63 66       	movb   $0x66,0x63(%rsp)
  4018af:	c6 44 24 64 20       	movb   $0x20,0x64(%rsp)
  4018b4:	c6 44 24 65 79       	movb   $0x79,0x65(%rsp)
  4018b9:	c6 44 24 66 6f       	movb   $0x6f,0x66(%rsp)
  4018be:	c6 44 24 67 75       	movb   $0x75,0x67(%rsp)
  4018c3:	c6 44 24 68 20       	movb   $0x20,0x68(%rsp)
  4018c8:	c6 44 24 69 64       	movb   $0x64,0x69(%rsp)
  4018cd:	c6 44 24 6a 6f       	movb   $0x6f,0x6a(%rsp)
  4018d2:	c6 44 24 6b 20       	movb   $0x20,0x6b(%rsp)
  4018d7:	c6 44 24 6c 79       	movb   $0x79,0x6c(%rsp)
  4018dc:	c6 44 24 6d 6f       	movb   $0x6f,0x6d(%rsp)
  4018e1:	c6 44 24 6e 75       	movb   $0x75,0x6e(%rsp)
  4018e6:	c6 44 24 6f 20       	movb   $0x20,0x6f(%rsp)
  4018eb:	c6 44 24 70 77       	movb   $0x77,0x70(%rsp)
  4018f0:	c6 44 24 71 6f       	movb   $0x6f,0x71(%rsp)
  4018f5:	c6 44 24 72 6e       	movb   $0x6e,0x72(%rsp)
  4018fa:	c6 44 24 73 27       	movb   $0x27,0x73(%rsp)
  4018ff:	c6 44 24 74 74       	movb   $0x74,0x74(%rsp)
  401904:	c6 44 24 75 20       	movb   $0x20,0x75(%rsp)
  401909:	c6 44 24 76 67       	movb   $0x67,0x76(%rsp)
  40190e:	c6 44 24 77 65       	movb   $0x65,0x77(%rsp)
  401913:	c6 44 24 78 74       	movb   $0x74,0x78(%rsp)
  401918:	c6 44 24 79 20       	movb   $0x20,0x79(%rsp)
  40191d:	c6 44 24 7a 61       	movb   $0x61,0x7a(%rsp)
  401922:	c6 44 24 7b 6e       	movb   $0x6e,0x7b(%rsp)
  401927:	c6 44 24 7c 79       	movb   $0x79,0x7c(%rsp)
  40192c:	c6 44 24 7d 20       	movb   $0x20,0x7d(%rsp)
  401931:	c6 44 24 7e 65       	movb   $0x65,0x7e(%rsp)
  401936:	c6 44 24 7f 78       	movb   $0x78,0x7f(%rsp)
  40193b:	c6 84 24 80 00 00 00 	movb   $0x74,0x80(%rsp)
  401942:	74 
  401943:	c6 84 24 81 00 00 00 	movb   $0x72,0x81(%rsp)
  40194a:	72 
  40194b:	c6 84 24 82 00 00 00 	movb   $0x61,0x82(%rsp)
  401952:	61 
  401953:	c6 84 24 83 00 00 00 	movb   $0x20,0x83(%rsp)
  40195a:	20 
  40195b:	c6 84 24 84 00 00 00 	movb   $0x63,0x84(%rsp)
  401962:	63 
  401963:	c6 84 24 85 00 00 00 	movb   $0x72,0x85(%rsp)
  40196a:	72 
  40196b:	c6 84 24 86 00 00 00 	movb   $0x65,0x86(%rsp)
  401972:	65 
  401973:	c6 84 24 87 00 00 00 	movb   $0x64,0x87(%rsp)
  40197a:	64 
  40197b:	c6 84 24 88 00 00 00 	movb   $0x69,0x88(%rsp)
  401982:	69 
  401983:	c6 84 24 89 00 00 00 	movb   $0x74,0x89(%rsp)
  40198a:	74 
  40198b:	c6 84 24 8a 00 00 00 	movb   $0x21,0x8a(%rsp)
  401992:	21 
  401993:	c6 84 24 8b 00 00 00 	movb   $0x20,0x8b(%rsp)
  40199a:	20 
  40199b:	c6 84 24 8c 00 00 00 	movb   $0x61,0x8c(%rsp)
  4019a2:	61 
  4019a3:	c6 84 24 8d 00 00 00 	movb   $0x6e,0x8d(%rsp)
  4019aa:	6e 
  4019ab:	c6 84 24 8e 00 00 00 	movb   $0x79,0x8e(%rsp)
  4019b2:	79 
  4019b3:	c6 84 24 8f 00 00 00 	movb   $0x77,0x8f(%rsp)
  4019ba:	77 
  4019bb:	c6 84 24 90 00 00 00 	movb   $0x61,0x90(%rsp)
  4019c2:	61 
  4019c3:	c6 84 24 91 00 00 00 	movb   $0x79,0x91(%rsp)
  4019ca:	79 
  4019cb:	c6 84 24 92 00 00 00 	movb   $0x73,0x92(%rsp)
  4019d2:	73 
  4019d3:	c6 84 24 93 00 00 00 	movb   $0x2c,0x93(%rsp)
  4019da:	2c 
  4019db:	c6 84 24 94 00 00 00 	movb   $0xa,0x94(%rsp)
  4019e2:	0a 
  4019e3:	c6 84 24 95 00 00 00 	movb   $0x66,0x95(%rsp)
  4019ea:	66 
  4019eb:	c6 84 24 96 00 00 00 	movb   $0x69,0x96(%rsp)
  4019f2:	69 
  4019f3:	c6 84 24 97 00 00 00 	movb   $0x6e,0x97(%rsp)
  4019fa:	6e 
  4019fb:	c6 84 24 98 00 00 00 	movb   $0x64,0x98(%rsp)
  401a02:	64 
  401a03:	c6 84 24 99 00 00 00 	movb   $0x69,0x99(%rsp)
  401a0a:	69 
  401a0b:	c6 84 24 9a 00 00 00 	movb   $0x6e,0x9a(%rsp)
  401a12:	6e 
  401a13:	c6 84 24 9b 00 00 00 	movb   $0x67,0x9b(%rsp)
  401a1a:	67 
  401a1b:	c6 84 24 9c 00 00 00 	movb   $0x20,0x9c(%rsp)
  401a22:	20 
  401a23:	c6 84 24 9d 00 00 00 	movb   $0x69,0x9d(%rsp)
  401a2a:	69 
  401a2b:	c6 84 24 9e 00 00 00 	movb   $0x74,0x9e(%rsp)
  401a32:	74 
  401a33:	c6 84 24 9f 00 00 00 	movb   $0x20,0x9f(%rsp)
  401a3a:	20 
  401a3b:	c6 84 24 a0 00 00 00 	movb   $0x61,0xa0(%rsp)
  401a42:	61 
  401a43:	c6 84 24 a1 00 00 00 	movb   $0x6e,0xa1(%rsp)
  401a4a:	6e 
  401a4b:	c6 84 24 a2 00 00 00 	movb   $0x64,0xa2(%rsp)
  401a52:	64 
  401a53:	c6 84 24 a3 00 00 00 	movb   $0x20,0xa3(%rsp)
  401a5a:	20 
  401a5b:	c6 84 24 a4 00 00 00 	movb   $0x73,0xa4(%rsp)
  401a62:	73 
  401a63:	c6 84 24 a5 00 00 00 	movb   $0x6f,0xa5(%rsp)
  401a6a:	6f 
  401a6b:	c6 84 24 a6 00 00 00 	movb   $0x6c,0xa6(%rsp)
  401a72:	6c 
  401a73:	c6 84 24 a7 00 00 00 	movb   $0x76,0xa7(%rsp)
  401a7a:	76 
  401a7b:	c6 84 24 a8 00 00 00 	movb   $0x69,0xa8(%rsp)
  401a82:	69 
  401a83:	c6 84 24 a9 00 00 00 	movb   $0x6e,0xa9(%rsp)
  401a8a:	6e 
  401a8b:	c6 84 24 aa 00 00 00 	movb   $0x67,0xaa(%rsp)
  401a92:	67 
  401a93:	c6 84 24 ab 00 00 00 	movb   $0x20,0xab(%rsp)
  401a9a:	20 
  401a9b:	c6 84 24 ac 00 00 00 	movb   $0x69,0xac(%rsp)
  401aa2:	69 
  401aa3:	c6 84 24 ad 00 00 00 	movb   $0x74,0xad(%rsp)
  401aaa:	74 
  401aab:	c6 84 24 ae 00 00 00 	movb   $0x20,0xae(%rsp)
  401ab2:	20 
  401ab3:	c6 84 24 af 00 00 00 	movb   $0x61,0xaf(%rsp)
  401aba:	61 
  401abb:	c6 84 24 b0 00 00 00 	movb   $0x72,0xb0(%rsp)
  401ac2:	72 
  401ac3:	c6 84 24 b1 00 00 00 	movb   $0x65,0xb1(%rsp)
  401aca:	65 
  401acb:	c6 84 24 b2 00 00 00 	movb   $0x20,0xb2(%rsp)
  401ad2:	20 
  401ad3:	c6 84 24 b3 00 00 00 	movb   $0x71,0xb3(%rsp)
  401ada:	71 
  401adb:	c6 84 24 b4 00 00 00 	movb   $0x75,0xb4(%rsp)
  401ae2:	75 
  401ae3:	c6 84 24 b5 00 00 00 	movb   $0x69,0xb5(%rsp)
  401aea:	69 
  401aeb:	c6 84 24 b6 00 00 00 	movb   $0x74,0xb6(%rsp)
  401af2:	74 
  401af3:	c6 84 24 b7 00 00 00 	movb   $0x65,0xb7(%rsp)
  401afa:	65 
  401afb:	c6 84 24 b8 00 00 00 	movb   $0x20,0xb8(%rsp)
  401b02:	20 
  401b03:	c6 84 24 b9 00 00 00 	movb   $0x64,0xb9(%rsp)
  401b0a:	64 
  401b0b:	c6 84 24 ba 00 00 00 	movb   $0x69,0xba(%rsp)
  401b12:	69 
  401b13:	c6 84 24 bb 00 00 00 	movb   $0x66,0xbb(%rsp)
  401b1a:	66 
  401b1b:	c6 84 24 bc 00 00 00 	movb   $0x66,0xbc(%rsp)
  401b22:	66 
  401b23:	c6 84 24 bd 00 00 00 	movb   $0x65,0xbd(%rsp)
  401b2a:	65 
  401b2b:	c6 84 24 be 00 00 00 	movb   $0x72,0xbe(%rsp)
  401b32:	72 
  401b33:	c6 84 24 bf 00 00 00 	movb   $0x65,0xbf(%rsp)
  401b3a:	65 
  401b3b:	c6 84 24 c0 00 00 00 	movb   $0x6e,0xc0(%rsp)
  401b42:	6e 
  401b43:	c6 84 24 c1 00 00 00 	movb   $0x74,0xc1(%rsp)
  401b4a:	74 
  401b4b:	c6 84 24 c2 00 00 00 	movb   $0x2e,0xc2(%rsp)
  401b52:	2e 
  401b53:	c6 84 24 c3 00 00 00 	movb   $0x2e,0xc3(%rsp)
  401b5a:	2e 
  401b5b:	c6 84 24 c4 00 00 00 	movb   $0x2e,0xc4(%rsp)
  401b62:	2e 
  401b63:	83 3d b6 2a 20 00 06 	cmpl   $0x6,0x202ab6(%rip)        # 604620 <num_input_strings>
  401b6a:	75 34                	jne    401ba0 <explode_bomb+0x565>
  401b6c:	83 3d a9 2a 20 00 21 	cmpl   $0x21,0x202aa9(%rip)        # 60461c <last>
  401b73:	75 2b                	jne    401ba0 <explode_bomb+0x565>
  401b75:	48 89 e7             	mov    %rsp,%rdi
  401b78:	e8 93 ef ff ff       	callq  400b10 <puts@plt>
  401b7d:	e8 80 fa ff ff       	callq  401602 <phase_defused>
  401b82:	c7 05 90 2a 20 00 00 	movl   $0x0,0x202a90(%rip)        # 60461c <last>
  401b89:	00 00 00 
  401b8c:	b8 00 00 00 00       	mov    $0x0,%eax
  401b91:	e8 37 f6 ff ff       	callq  4011cd <s3cret_ph4se>
  401b96:	bf 00 00 00 00       	mov    $0x0,%edi
  401b9b:	e8 a0 f0 ff ff       	callq  400c40 <exit@plt>
  401ba0:	bf 7d 31 40 00       	mov    $0x40317d,%edi
  401ba5:	e8 66 ef ff ff       	callq  400b10 <puts@plt>
  401baa:	bf 86 31 40 00       	mov    $0x403186,%edi
  401baf:	e8 5c ef ff ff       	callq  400b10 <puts@plt>
  401bb4:	bf 00 00 00 00       	mov    $0x0,%edi
  401bb9:	e8 80 f9 ff ff       	callq  40153e <send_msg>
  401bbe:	bf a8 30 40 00       	mov    $0x4030a8,%edi
  401bc3:	e8 48 ef ff ff       	callq  400b10 <puts@plt>
  401bc8:	bf 08 00 00 00       	mov    $0x8,%edi
  401bcd:	e8 6e f0 ff ff       	callq  400c40 <exit@plt>

0000000000401bd2 <read_six_numbers>:
  401bd2:	48 83 ec 18          	sub    $0x18,%rsp
  401bd6:	48 89 f2             	mov    %rsi,%rdx
  401bd9:	48 8d 76 14          	lea    0x14(%rsi),%rsi
  401bdd:	48 8d 42 10          	lea    0x10(%rdx),%rax
  401be1:	48 8d 4a 04          	lea    0x4(%rdx),%rcx
  401be5:	48 89 74 24 08       	mov    %rsi,0x8(%rsp)
  401bea:	48 89 04 24          	mov    %rax,(%rsp)
  401bee:	4c 8d 4a 0c          	lea    0xc(%rdx),%r9
  401bf2:	4c 8d 42 08          	lea    0x8(%rdx),%r8
  401bf6:	be 9d 31 40 00       	mov    $0x40319d,%esi
  401bfb:	b8 00 00 00 00       	mov    $0x0,%eax
  401c00:	e8 eb ef ff ff       	callq  400bf0 <__isoc99_sscanf@plt>
  401c05:	83 f8 05             	cmp    $0x5,%eax
  401c08:	7f 05                	jg     401c0f <read_six_numbers+0x3d>
  401c0a:	e8 2c fa ff ff       	callq  40163b <explode_bomb>
  401c0f:	48 83 c4 18          	add    $0x18,%rsp
  401c13:	c3                   	retq   

0000000000401c14 <read_two_numbers>:
  401c14:	48 83 ec 08          	sub    $0x8,%rsp
  401c18:	48 89 d1             	mov    %rdx,%rcx
  401c1b:	48 89 f2             	mov    %rsi,%rdx
  401c1e:	be a9 31 40 00       	mov    $0x4031a9,%esi
  401c23:	b8 00 00 00 00       	mov    $0x0,%eax
  401c28:	e8 c3 ef ff ff       	callq  400bf0 <__isoc99_sscanf@plt>
  401c2d:	83 f8 02             	cmp    $0x2,%eax
  401c30:	74 05                	je     401c37 <read_two_numbers+0x23>
  401c32:	e8 04 fa ff ff       	callq  40163b <explode_bomb>
  401c37:	48 83 c4 08          	add    $0x8,%rsp
  401c3b:	c3                   	retq   

0000000000401c3c <read_line>:
  401c3c:	48 83 ec 08          	sub    $0x8,%rsp
  401c40:	b8 00 00 00 00       	mov    $0x0,%eax
  401c45:	e8 b3 f8 ff ff       	callq  4014fd <skip>
  401c4a:	48 85 c0             	test   %rax,%rax
  401c4d:	75 6e                	jne    401cbd <read_line+0x81>
  401c4f:	48 8b 05 b2 29 20 00 	mov    0x2029b2(%rip),%rax        # 604608 <stdin@@GLIBC_2.2.5>
  401c56:	48 39 05 cb 29 20 00 	cmp    %rax,0x2029cb(%rip)        # 604628 <infile>
  401c5d:	75 14                	jne    401c73 <read_line+0x37>
  401c5f:	bf af 31 40 00       	mov    $0x4031af,%edi
  401c64:	e8 a7 ee ff ff       	callq  400b10 <puts@plt>
  401c69:	bf 08 00 00 00       	mov    $0x8,%edi
  401c6e:	e8 cd ef ff ff       	callq  400c40 <exit@plt>
  401c73:	bf cd 31 40 00       	mov    $0x4031cd,%edi
  401c78:	e8 53 ee ff ff       	callq  400ad0 <getenv@plt>
  401c7d:	48 85 c0             	test   %rax,%rax
  401c80:	74 0a                	je     401c8c <read_line+0x50>
  401c82:	bf 00 00 00 00       	mov    $0x0,%edi
  401c87:	e8 b4 ef ff ff       	callq  400c40 <exit@plt>
  401c8c:	48 8b 05 75 29 20 00 	mov    0x202975(%rip),%rax        # 604608 <stdin@@GLIBC_2.2.5>
  401c93:	48 89 05 8e 29 20 00 	mov    %rax,0x20298e(%rip)        # 604628 <infile>
  401c9a:	b8 00 00 00 00       	mov    $0x0,%eax
  401c9f:	e8 59 f8 ff ff       	callq  4014fd <skip>
  401ca4:	48 85 c0             	test   %rax,%rax
  401ca7:	75 14                	jne    401cbd <read_line+0x81>
  401ca9:	bf af 31 40 00       	mov    $0x4031af,%edi
  401cae:	e8 5d ee ff ff       	callq  400b10 <puts@plt>
  401cb3:	bf 00 00 00 00       	mov    $0x0,%edi
  401cb8:	e8 83 ef ff ff       	callq  400c40 <exit@plt>
  401cbd:	8b 15 5d 29 20 00    	mov    0x20295d(%rip),%edx        # 604620 <num_input_strings>
  401cc3:	48 63 c2             	movslq %edx,%rax
  401cc6:	48 8d 04 80          	lea    (%rax,%rax,4),%rax
  401cca:	48 c1 e0 04          	shl    $0x4,%rax
  401cce:	4c 8d 80 40 46 60 00 	lea    0x604640(%rax),%r8
  401cd5:	4c 89 c7             	mov    %r8,%rdi
  401cd8:	b8 00 00 00 00       	mov    $0x0,%eax
  401cdd:	48 c7 c1 ff ff ff ff 	mov    $0xffffffffffffffff,%rcx
  401ce4:	f2 ae                	repnz scas %es:(%rdi),%al
  401ce6:	48 f7 d1             	not    %rcx
  401ce9:	48 83 e9 01          	sub    $0x1,%rcx
  401ced:	83 f9 4e             	cmp    $0x4e,%ecx
  401cf0:	7e 46                	jle    401d38 <read_line+0xfc>
  401cf2:	bf d8 31 40 00       	mov    $0x4031d8,%edi
  401cf7:	e8 14 ee ff ff       	callq  400b10 <puts@plt>
  401cfc:	8b 05 1e 29 20 00    	mov    0x20291e(%rip),%eax        # 604620 <num_input_strings>
  401d02:	8d 50 01             	lea    0x1(%rax),%edx
  401d05:	89 15 15 29 20 00    	mov    %edx,0x202915(%rip)        # 604620 <num_input_strings>
  401d0b:	48 98                	cltq   
  401d0d:	48 6b c0 50          	imul   $0x50,%rax,%rax
  401d11:	48 bf 2a 2a 2a 74 72 	movabs $0x636e7572742a2a2a,%rdi
  401d18:	75 6e 63 
  401d1b:	48 89 b8 40 46 60 00 	mov    %rdi,0x604640(%rax)
  401d22:	48 bf 61 74 65 64 2a 	movabs $0x2a2a2a64657461,%rdi
  401d29:	2a 2a 00 
  401d2c:	48 89 b8 48 46 60 00 	mov    %rdi,0x604648(%rax)
  401d33:	e8 03 f9 ff ff       	callq  40163b <explode_bomb>
  401d38:	83 e9 01             	sub    $0x1,%ecx
  401d3b:	48 63 c9             	movslq %ecx,%rcx
  401d3e:	48 63 c2             	movslq %edx,%rax
  401d41:	48 8d 34 80          	lea    (%rax,%rax,4),%rsi
  401d45:	48 c1 e6 04          	shl    $0x4,%rsi
  401d49:	c6 84 31 40 46 60 00 	movb   $0x0,0x604640(%rcx,%rsi,1)
  401d50:	00 
  401d51:	83 c2 01             	add    $0x1,%edx
  401d54:	89 15 c6 28 20 00    	mov    %edx,0x2028c6(%rip)        # 604620 <num_input_strings>
  401d5a:	4c 89 c0             	mov    %r8,%rax
  401d5d:	48 83 c4 08          	add    $0x8,%rsp
  401d61:	c3                   	retq   
  401d62:	66 2e 0f 1f 84 00 00 	nopw   %cs:0x0(%rax,%rax,1)
  401d69:	00 00 00 
  401d6c:	0f 1f 40 00          	nopl   0x0(%rax)

0000000000401d70 <rio_readinitb>:
  401d70:	89 37                	mov    %esi,(%rdi)
  401d72:	c7 47 04 00 00 00 00 	movl   $0x0,0x4(%rdi)
  401d79:	48 8d 47 10          	lea    0x10(%rdi),%rax
  401d7d:	48 89 47 08          	mov    %rax,0x8(%rdi)
  401d81:	c3                   	retq   

0000000000401d82 <sigalrm_handler>:
  401d82:	48 83 ec 08          	sub    $0x8,%rsp
  401d86:	ba 00 00 00 00       	mov    $0x0,%edx
  401d8b:	be 48 33 40 00       	mov    $0x403348,%esi
  401d90:	48 8b 3d 79 28 20 00 	mov    0x202879(%rip),%rdi        # 604610 <stderr@@GLIBC_2.2.5>
  401d97:	b8 00 00 00 00       	mov    $0x0,%eax
  401d9c:	e8 0f ee ff ff       	callq  400bb0 <fprintf@plt>
  401da1:	bf 01 00 00 00       	mov    $0x1,%edi
  401da6:	e8 95 ee ff ff       	callq  400c40 <exit@plt>

0000000000401dab <urlencode>:
  401dab:	41 54                	push   %r12
  401dad:	55                   	push   %rbp
  401dae:	53                   	push   %rbx
  401daf:	48 83 ec 10          	sub    $0x10,%rsp
  401db3:	48 89 fb             	mov    %rdi,%rbx
  401db6:	48 89 f5             	mov    %rsi,%rbp
  401db9:	b8 00 00 00 00       	mov    $0x0,%eax
  401dbe:	48 c7 c1 ff ff ff ff 	mov    $0xffffffffffffffff,%rcx
  401dc5:	f2 ae                	repnz scas %es:(%rdi),%al
  401dc7:	48 f7 d1             	not    %rcx
  401dca:	8d 41 ff             	lea    -0x1(%rcx),%eax
  401dcd:	e9 93 00 00 00       	jmpq   401e65 <urlencode+0xba>
  401dd2:	0f b6 13             	movzbl (%rbx),%edx
  401dd5:	80 fa 2a             	cmp    $0x2a,%dl
  401dd8:	0f 94 c1             	sete   %cl
  401ddb:	80 fa 2d             	cmp    $0x2d,%dl
  401dde:	0f 94 c0             	sete   %al
  401de1:	08 c1                	or     %al,%cl
  401de3:	75 1f                	jne    401e04 <urlencode+0x59>
  401de5:	80 fa 2e             	cmp    $0x2e,%dl
  401de8:	74 1a                	je     401e04 <urlencode+0x59>
  401dea:	80 fa 5f             	cmp    $0x5f,%dl
  401ded:	74 15                	je     401e04 <urlencode+0x59>
  401def:	8d 42 d0             	lea    -0x30(%rdx),%eax
  401df2:	3c 09                	cmp    $0x9,%al
  401df4:	76 0e                	jbe    401e04 <urlencode+0x59>
  401df6:	8d 42 bf             	lea    -0x41(%rdx),%eax
  401df9:	3c 19                	cmp    $0x19,%al
  401dfb:	76 07                	jbe    401e04 <urlencode+0x59>
  401dfd:	8d 42 9f             	lea    -0x61(%rdx),%eax
  401e00:	3c 19                	cmp    $0x19,%al
  401e02:	77 09                	ja     401e0d <urlencode+0x62>
  401e04:	88 55 00             	mov    %dl,0x0(%rbp)
  401e07:	48 8d 6d 01          	lea    0x1(%rbp),%rbp
  401e0b:	eb 51                	jmp    401e5e <urlencode+0xb3>
  401e0d:	80 fa 20             	cmp    $0x20,%dl
  401e10:	75 0a                	jne    401e1c <urlencode+0x71>
  401e12:	c6 45 00 2b          	movb   $0x2b,0x0(%rbp)
  401e16:	48 8d 6d 01          	lea    0x1(%rbp),%rbp
  401e1a:	eb 42                	jmp    401e5e <urlencode+0xb3>
  401e1c:	8d 42 e0             	lea    -0x20(%rdx),%eax
  401e1f:	3c 5f                	cmp    $0x5f,%al
  401e21:	0f 96 c1             	setbe  %cl
  401e24:	80 fa 09             	cmp    $0x9,%dl
  401e27:	0f 94 c0             	sete   %al
  401e2a:	08 c1                	or     %al,%cl
  401e2c:	74 45                	je     401e73 <urlencode+0xc8>
  401e2e:	0f b6 d2             	movzbl %dl,%edx
  401e31:	be 20 34 40 00       	mov    $0x403420,%esi
  401e36:	48 89 e7             	mov    %rsp,%rdi
  401e39:	b8 00 00 00 00       	mov    $0x0,%eax
  401e3e:	e8 ed ed ff ff       	callq  400c30 <sprintf@plt>
  401e43:	0f b6 04 24          	movzbl (%rsp),%eax
  401e47:	88 45 00             	mov    %al,0x0(%rbp)
  401e4a:	0f b6 44 24 01       	movzbl 0x1(%rsp),%eax
  401e4f:	88 45 01             	mov    %al,0x1(%rbp)
  401e52:	0f b6 44 24 02       	movzbl 0x2(%rsp),%eax
  401e57:	88 45 02             	mov    %al,0x2(%rbp)
  401e5a:	48 8d 6d 03          	lea    0x3(%rbp),%rbp
  401e5e:	48 83 c3 01          	add    $0x1,%rbx
  401e62:	44 89 e0             	mov    %r12d,%eax
  401e65:	44 8d 60 ff          	lea    -0x1(%rax),%r12d
  401e69:	85 c0                	test   %eax,%eax
  401e6b:	0f 85 61 ff ff ff    	jne    401dd2 <urlencode+0x27>
  401e71:	eb 05                	jmp    401e78 <urlencode+0xcd>
  401e73:	b8 ff ff ff ff       	mov    $0xffffffff,%eax
  401e78:	48 83 c4 10          	add    $0x10,%rsp
  401e7c:	5b                   	pop    %rbx
  401e7d:	5d                   	pop    %rbp
  401e7e:	41 5c                	pop    %r12
  401e80:	c3                   	retq   

0000000000401e81 <rio_writen>:
  401e81:	41 55                	push   %r13
  401e83:	41 54                	push   %r12
  401e85:	55                   	push   %rbp
  401e86:	53                   	push   %rbx
  401e87:	48 83 ec 08          	sub    $0x8,%rsp
  401e8b:	41 89 fc             	mov    %edi,%r12d
  401e8e:	48 89 f5             	mov    %rsi,%rbp
  401e91:	49 89 d5             	mov    %rdx,%r13
  401e94:	48 89 d3             	mov    %rdx,%rbx
  401e97:	eb 28                	jmp    401ec1 <rio_writen+0x40>
  401e99:	48 89 da             	mov    %rbx,%rdx
  401e9c:	48 89 ee             	mov    %rbp,%rsi
  401e9f:	44 89 e7             	mov    %r12d,%edi
  401ea2:	e8 79 ec ff ff       	callq  400b20 <write@plt>
  401ea7:	48 85 c0             	test   %rax,%rax
  401eaa:	7f 0f                	jg     401ebb <rio_writen+0x3a>
  401eac:	e8 3f ec ff ff       	callq  400af0 <__errno_location@plt>
  401eb1:	83 38 04             	cmpl   $0x4,(%rax)
  401eb4:	75 15                	jne    401ecb <rio_writen+0x4a>
  401eb6:	b8 00 00 00 00       	mov    $0x0,%eax
  401ebb:	48 29 c3             	sub    %rax,%rbx
  401ebe:	48 01 c5             	add    %rax,%rbp
  401ec1:	48 85 db             	test   %rbx,%rbx
  401ec4:	75 d3                	jne    401e99 <rio_writen+0x18>
  401ec6:	4c 89 e8             	mov    %r13,%rax
  401ec9:	eb 07                	jmp    401ed2 <rio_writen+0x51>
  401ecb:	48 c7 c0 ff ff ff ff 	mov    $0xffffffffffffffff,%rax
  401ed2:	48 83 c4 08          	add    $0x8,%rsp
  401ed6:	5b                   	pop    %rbx
  401ed7:	5d                   	pop    %rbp
  401ed8:	41 5c                	pop    %r12
  401eda:	41 5d                	pop    %r13
  401edc:	c3                   	retq   

0000000000401edd <rio_read>:
  401edd:	41 56                	push   %r14
  401edf:	41 55                	push   %r13
  401ee1:	41 54                	push   %r12
  401ee3:	55                   	push   %rbp
  401ee4:	53                   	push   %rbx
  401ee5:	48 89 fb             	mov    %rdi,%rbx
  401ee8:	49 89 f6             	mov    %rsi,%r14
  401eeb:	49 89 d5             	mov    %rdx,%r13
  401eee:	4c 8d 67 10          	lea    0x10(%rdi),%r12
  401ef2:	eb 2a                	jmp    401f1e <rio_read+0x41>
  401ef4:	ba 00 20 00 00       	mov    $0x2000,%edx
  401ef9:	4c 89 e6             	mov    %r12,%rsi
  401efc:	8b 3b                	mov    (%rbx),%edi
  401efe:	e8 5d ec ff ff       	callq  400b60 <read@plt>
  401f03:	89 43 04             	mov    %eax,0x4(%rbx)
  401f06:	85 c0                	test   %eax,%eax
  401f08:	79 0c                	jns    401f16 <rio_read+0x39>
  401f0a:	e8 e1 eb ff ff       	callq  400af0 <__errno_location@plt>
  401f0f:	83 38 04             	cmpl   $0x4,(%rax)
  401f12:	74 0a                	je     401f1e <rio_read+0x41>
  401f14:	eb 38                	jmp    401f4e <rio_read+0x71>
  401f16:	85 c0                	test   %eax,%eax
  401f18:	74 3d                	je     401f57 <rio_read+0x7a>
  401f1a:	4c 89 63 08          	mov    %r12,0x8(%rbx)
  401f1e:	8b 6b 04             	mov    0x4(%rbx),%ebp
  401f21:	85 ed                	test   %ebp,%ebp
  401f23:	7e cf                	jle    401ef4 <rio_read+0x17>
  401f25:	48 63 c5             	movslq %ebp,%rax
  401f28:	4c 39 e8             	cmp    %r13,%rax
  401f2b:	72 03                	jb     401f30 <rio_read+0x53>
  401f2d:	44 89 ed             	mov    %r13d,%ebp
  401f30:	4c 63 e5             	movslq %ebp,%r12
  401f33:	48 8b 73 08          	mov    0x8(%rbx),%rsi
  401f37:	4c 89 e2             	mov    %r12,%rdx
  401f3a:	4c 89 f7             	mov    %r14,%rdi
  401f3d:	e8 8e ec ff ff       	callq  400bd0 <memcpy@plt>
  401f42:	4c 01 63 08          	add    %r12,0x8(%rbx)
  401f46:	29 6b 04             	sub    %ebp,0x4(%rbx)
  401f49:	4c 89 e0             	mov    %r12,%rax
  401f4c:	eb 0e                	jmp    401f5c <rio_read+0x7f>
  401f4e:	48 c7 c0 ff ff ff ff 	mov    $0xffffffffffffffff,%rax
  401f55:	eb 05                	jmp    401f5c <rio_read+0x7f>
  401f57:	b8 00 00 00 00       	mov    $0x0,%eax
  401f5c:	5b                   	pop    %rbx
  401f5d:	5d                   	pop    %rbp
  401f5e:	41 5c                	pop    %r12
  401f60:	41 5d                	pop    %r13
  401f62:	41 5e                	pop    %r14
  401f64:	c3                   	retq   

0000000000401f65 <rio_readlineb>:
  401f65:	41 55                	push   %r13
  401f67:	41 54                	push   %r12
  401f69:	55                   	push   %rbp
  401f6a:	53                   	push   %rbx
  401f6b:	48 83 ec 18          	sub    $0x18,%rsp
  401f6f:	49 89 fd             	mov    %rdi,%r13
  401f72:	48 89 f5             	mov    %rsi,%rbp
  401f75:	49 89 d4             	mov    %rdx,%r12
  401f78:	bb 01 00 00 00       	mov    $0x1,%ebx
  401f7d:	eb 3b                	jmp    401fba <rio_readlineb+0x55>
  401f7f:	ba 01 00 00 00       	mov    $0x1,%edx
  401f84:	48 8d 74 24 0f       	lea    0xf(%rsp),%rsi
  401f89:	4c 89 ef             	mov    %r13,%rdi
  401f8c:	e8 4c ff ff ff       	callq  401edd <rio_read>
  401f91:	83 f8 01             	cmp    $0x1,%eax
  401f94:	75 12                	jne    401fa8 <rio_readlineb+0x43>
  401f96:	48 8d 55 01          	lea    0x1(%rbp),%rdx
  401f9a:	0f b6 44 24 0f       	movzbl 0xf(%rsp),%eax
  401f9f:	88 45 00             	mov    %al,0x0(%rbp)
  401fa2:	3c 0a                	cmp    $0xa,%al
  401fa4:	75 0e                	jne    401fb4 <rio_readlineb+0x4f>
  401fa6:	eb 1c                	jmp    401fc4 <rio_readlineb+0x5f>
  401fa8:	85 c0                	test   %eax,%eax
  401faa:	75 24                	jne    401fd0 <rio_readlineb+0x6b>
  401fac:	83 fb 01             	cmp    $0x1,%ebx
  401faf:	90                   	nop
  401fb0:	75 15                	jne    401fc7 <rio_readlineb+0x62>
  401fb2:	eb 25                	jmp    401fd9 <rio_readlineb+0x74>
  401fb4:	83 c3 01             	add    $0x1,%ebx
  401fb7:	48 89 d5             	mov    %rdx,%rbp
  401fba:	48 63 c3             	movslq %ebx,%rax
  401fbd:	4c 39 e0             	cmp    %r12,%rax
  401fc0:	72 bd                	jb     401f7f <rio_readlineb+0x1a>
  401fc2:	eb 03                	jmp    401fc7 <rio_readlineb+0x62>
  401fc4:	48 89 d5             	mov    %rdx,%rbp
  401fc7:	c6 45 00 00          	movb   $0x0,0x0(%rbp)
  401fcb:	48 63 c3             	movslq %ebx,%rax
  401fce:	eb 0e                	jmp    401fde <rio_readlineb+0x79>
  401fd0:	48 c7 c0 ff ff ff ff 	mov    $0xffffffffffffffff,%rax
  401fd7:	eb 05                	jmp    401fde <rio_readlineb+0x79>
  401fd9:	b8 00 00 00 00       	mov    $0x0,%eax
  401fde:	48 83 c4 18          	add    $0x18,%rsp
  401fe2:	5b                   	pop    %rbx
  401fe3:	5d                   	pop    %rbp
  401fe4:	41 5c                	pop    %r12
  401fe6:	41 5d                	pop    %r13
  401fe8:	c3                   	retq   

0000000000401fe9 <submitr>:
  401fe9:	41 57                	push   %r15
  401feb:	41 56                	push   %r14
  401fed:	41 55                	push   %r13
  401fef:	41 54                	push   %r12
  401ff1:	55                   	push   %rbp
  401ff2:	53                   	push   %rbx
  401ff3:	48 81 ec 58 a0 00 00 	sub    $0xa058,%rsp
  401ffa:	49 89 ff             	mov    %rdi,%r15
  401ffd:	89 74 24 14          	mov    %esi,0x14(%rsp)
  402001:	49 89 d4             	mov    %rdx,%r12
  402004:	49 89 cd             	mov    %rcx,%r13
  402007:	4c 89 44 24 18       	mov    %r8,0x18(%rsp)
  40200c:	4d 89 ce             	mov    %r9,%r14
  40200f:	48 8b 9c 24 98 a0 00 	mov    0xa098(%rsp),%rbx
  402016:	00 
  402017:	c7 84 24 2c 20 00 00 	movl   $0x0,0x202c(%rsp)
  40201e:	00 00 00 00 
  402022:	ba 00 00 00 00       	mov    $0x0,%edx
  402027:	be 01 00 00 00       	mov    $0x1,%esi
  40202c:	bf 02 00 00 00       	mov    $0x2,%edi
  402031:	e8 4a ec ff ff       	callq  400c80 <socket@plt>
  402036:	89 c5                	mov    %eax,%ebp
  402038:	85 c0                	test   %eax,%eax
  40203a:	79 4e                	jns    40208a <submitr+0xa1>
  40203c:	48 b8 45 72 72 6f 72 	movabs $0x43203a726f727245,%rax
  402043:	3a 20 43 
  402046:	48 89 03             	mov    %rax,(%rbx)
  402049:	48 b8 6c 69 65 6e 74 	movabs $0x6e7520746e65696c,%rax
  402050:	20 75 6e 
  402053:	48 89 43 08          	mov    %rax,0x8(%rbx)
  402057:	48 b8 61 62 6c 65 20 	movabs $0x206f7420656c6261,%rax
  40205e:	74 6f 20 
  402061:	48 89 43 10          	mov    %rax,0x10(%rbx)
  402065:	48 b8 63 72 65 61 74 	movabs $0x7320657461657263,%rax
  40206c:	65 20 73 
  40206f:	48 89 43 18          	mov    %rax,0x18(%rbx)
  402073:	c7 43 20 6f 63 6b 65 	movl   $0x656b636f,0x20(%rbx)
  40207a:	66 c7 43 24 74 00    	movw   $0x74,0x24(%rbx)
  402080:	b8 ff ff ff ff       	mov    $0xffffffff,%eax
  402085:	e9 e7 05 00 00       	jmpq   402671 <submitr+0x688>
  40208a:	4c 89 ff             	mov    %r15,%rdi
  40208d:	e8 0e eb ff ff       	callq  400ba0 <gethostbyname@plt>
  402092:	48 85 c0             	test   %rax,%rax
  402095:	75 67                	jne    4020fe <submitr+0x115>
  402097:	48 b8 45 72 72 6f 72 	movabs $0x44203a726f727245,%rax
  40209e:	3a 20 44 
  4020a1:	48 89 03             	mov    %rax,(%rbx)
  4020a4:	48 b8 4e 53 20 69 73 	movabs $0x6e7520736920534e,%rax
  4020ab:	20 75 6e 
  4020ae:	48 89 43 08          	mov    %rax,0x8(%rbx)
  4020b2:	48 b8 61 62 6c 65 20 	movabs $0x206f7420656c6261,%rax
  4020b9:	74 6f 20 
  4020bc:	48 89 43 10          	mov    %rax,0x10(%rbx)
  4020c0:	48 b8 72 65 73 6f 6c 	movabs $0x2065766c6f736572,%rax
  4020c7:	76 65 20 
  4020ca:	48 89 43 18          	mov    %rax,0x18(%rbx)
  4020ce:	48 b8 73 65 72 76 65 	movabs $0x6120726576726573,%rax
  4020d5:	72 20 61 
  4020d8:	48 89 43 20          	mov    %rax,0x20(%rbx)
  4020dc:	c7 43 28 64 64 72 65 	movl   $0x65726464,0x28(%rbx)
  4020e3:	66 c7 43 2c 73 73    	movw   $0x7373,0x2c(%rbx)
  4020e9:	c6 43 2e 00          	movb   $0x0,0x2e(%rbx)
  4020ed:	89 ef                	mov    %ebp,%edi
  4020ef:	e8 5c ea ff ff       	callq  400b50 <close@plt>
  4020f4:	b8 ff ff ff ff       	mov    $0xffffffff,%eax
  4020f9:	e9 73 05 00 00       	jmpq   402671 <submitr+0x688>
  4020fe:	48 c7 84 24 40 a0 00 	movq   $0x0,0xa040(%rsp)
  402105:	00 00 00 00 00 
  40210a:	48 c7 84 24 48 a0 00 	movq   $0x0,0xa048(%rsp)
  402111:	00 00 00 00 00 
  402116:	66 c7 84 24 40 a0 00 	movw   $0x2,0xa040(%rsp)
  40211d:	00 02 00 
  402120:	48 8b 48 18          	mov    0x18(%rax),%rcx
  402124:	48 63 50 14          	movslq 0x14(%rax),%rdx
  402128:	48 8d b4 24 44 a0 00 	lea    0xa044(%rsp),%rsi
  40212f:	00 
  402130:	48 8b 39             	mov    (%rcx),%rdi
  402133:	e8 c8 ea ff ff       	callq  400c00 <bcopy@plt>
  402138:	0f b7 44 24 14       	movzwl 0x14(%rsp),%eax
  40213d:	66 c1 c8 08          	ror    $0x8,%ax
  402141:	66 89 84 24 42 a0 00 	mov    %ax,0xa042(%rsp)
  402148:	00 
  402149:	ba 10 00 00 00       	mov    $0x10,%edx
  40214e:	48 8d b4 24 40 a0 00 	lea    0xa040(%rsp),%rsi
  402155:	00 
  402156:	89 ef                	mov    %ebp,%edi
  402158:	e8 f3 ea ff ff       	callq  400c50 <connect@plt>
  40215d:	85 c0                	test   %eax,%eax
  40215f:	79 59                	jns    4021ba <submitr+0x1d1>
  402161:	48 b8 45 72 72 6f 72 	movabs $0x55203a726f727245,%rax
  402168:	3a 20 55 
  40216b:	48 89 03             	mov    %rax,(%rbx)
  40216e:	48 b8 6e 61 62 6c 65 	movabs $0x6f7420656c62616e,%rax
  402175:	20 74 6f 
  402178:	48 89 43 08          	mov    %rax,0x8(%rbx)
  40217c:	48 b8 20 63 6f 6e 6e 	movabs $0x7463656e6e6f6320,%rax
  402183:	65 63 74 
  402186:	48 89 43 10          	mov    %rax,0x10(%rbx)
  40218a:	48 b8 20 74 6f 20 74 	movabs $0x20656874206f7420,%rax
  402191:	68 65 20 
  402194:	48 89 43 18          	mov    %rax,0x18(%rbx)
  402198:	c7 43 20 73 65 72 76 	movl   $0x76726573,0x20(%rbx)
  40219f:	66 c7 43 24 65 72    	movw   $0x7265,0x24(%rbx)
  4021a5:	c6 43 26 00          	movb   $0x0,0x26(%rbx)
  4021a9:	89 ef                	mov    %ebp,%edi
  4021ab:	e8 a0 e9 ff ff       	callq  400b50 <close@plt>
  4021b0:	b8 ff ff ff ff       	mov    $0xffffffff,%eax
  4021b5:	e9 b7 04 00 00       	jmpq   402671 <submitr+0x688>
  4021ba:	48 c7 c2 ff ff ff ff 	mov    $0xffffffffffffffff,%rdx
  4021c1:	48 8b bc 24 90 a0 00 	mov    0xa090(%rsp),%rdi
  4021c8:	00 
  4021c9:	b8 00 00 00 00       	mov    $0x0,%eax
  4021ce:	48 89 d1             	mov    %rdx,%rcx
  4021d1:	f2 ae                	repnz scas %es:(%rdi),%al
  4021d3:	48 f7 d1             	not    %rcx
  4021d6:	48 89 ce             	mov    %rcx,%rsi
  4021d9:	4c 89 e7             	mov    %r12,%rdi
  4021dc:	48 89 d1             	mov    %rdx,%rcx
  4021df:	f2 ae                	repnz scas %es:(%rdi),%al
  4021e1:	48 f7 d1             	not    %rcx
  4021e4:	49 89 c8             	mov    %rcx,%r8
  4021e7:	4c 89 ef             	mov    %r13,%rdi
  4021ea:	48 89 d1             	mov    %rdx,%rcx
  4021ed:	f2 ae                	repnz scas %es:(%rdi),%al
  4021ef:	49 29 c8             	sub    %rcx,%r8
  4021f2:	4c 89 f7             	mov    %r14,%rdi
  4021f5:	48 89 d1             	mov    %rdx,%rcx
  4021f8:	f2 ae                	repnz scas %es:(%rdi),%al
  4021fa:	49 29 c8             	sub    %rcx,%r8
  4021fd:	48 8d 44 76 fd       	lea    -0x3(%rsi,%rsi,2),%rax
  402202:	49 8d 44 00 7b       	lea    0x7b(%r8,%rax,1),%rax
  402207:	48 3d 00 20 00 00    	cmp    $0x2000,%rax
  40220d:	76 72                	jbe    402281 <submitr+0x298>
  40220f:	48 b8 45 72 72 6f 72 	movabs $0x52203a726f727245,%rax
  402216:	3a 20 52 
  402219:	48 89 03             	mov    %rax,(%rbx)
  40221c:	48 b8 65 73 75 6c 74 	movabs $0x747320746c757365,%rax
  402223:	20 73 74 
  402226:	48 89 43 08          	mov    %rax,0x8(%rbx)
  40222a:	48 b8 72 69 6e 67 20 	movabs $0x6f6f7420676e6972,%rax
  402231:	74 6f 6f 
  402234:	48 89 43 10          	mov    %rax,0x10(%rbx)
  402238:	48 b8 20 6c 61 72 67 	movabs $0x202e656772616c20,%rax
  40223f:	65 2e 20 
  402242:	48 89 43 18          	mov    %rax,0x18(%rbx)
  402246:	48 b8 49 6e 63 72 65 	movabs $0x6573616572636e49,%rax
  40224d:	61 73 65 
  402250:	48 89 43 20          	mov    %rax,0x20(%rbx)
  402254:	48 b8 20 53 55 42 4d 	movabs $0x5254494d42555320,%rax
  40225b:	49 54 52 
  40225e:	48 89 43 28          	mov    %rax,0x28(%rbx)
  402262:	48 b8 5f 4d 41 58 42 	movabs $0x46554258414d5f,%rax
  402269:	55 46 00 
  40226c:	48 89 43 30          	mov    %rax,0x30(%rbx)
  402270:	89 ef                	mov    %ebp,%edi
  402272:	e8 d9 e8 ff ff       	callq  400b50 <close@plt>
  402277:	b8 ff ff ff ff       	mov    $0xffffffff,%eax
  40227c:	e9 f0 03 00 00       	jmpq   402671 <submitr+0x688>
  402281:	48 8d b4 24 30 40 00 	lea    0x4030(%rsp),%rsi
  402288:	00 
  402289:	b9 00 04 00 00       	mov    $0x400,%ecx
  40228e:	b8 00 00 00 00       	mov    $0x0,%eax
  402293:	48 89 f7             	mov    %rsi,%rdi
  402296:	f3 48 ab             	rep stos %rax,%es:(%rdi)
  402299:	48 8b bc 24 90 a0 00 	mov    0xa090(%rsp),%rdi
  4022a0:	00 
  4022a1:	e8 05 fb ff ff       	callq  401dab <urlencode>
  4022a6:	85 c0                	test   %eax,%eax
  4022a8:	0f 89 8a 00 00 00    	jns    402338 <submitr+0x34f>
  4022ae:	48 b8 45 72 72 6f 72 	movabs $0x52203a726f727245,%rax
  4022b5:	3a 20 52 
  4022b8:	48 89 03             	mov    %rax,(%rbx)
  4022bb:	48 b8 65 73 75 6c 74 	movabs $0x747320746c757365,%rax
  4022c2:	20 73 74 
  4022c5:	48 89 43 08          	mov    %rax,0x8(%rbx)
  4022c9:	48 b8 72 69 6e 67 20 	movabs $0x6e6f6320676e6972,%rax
  4022d0:	63 6f 6e 
  4022d3:	48 89 43 10          	mov    %rax,0x10(%rbx)
  4022d7:	48 b8 74 61 69 6e 73 	movabs $0x6e6120736e696174,%rax
  4022de:	20 61 6e 
  4022e1:	48 89 43 18          	mov    %rax,0x18(%rbx)
  4022e5:	48 b8 20 69 6c 6c 65 	movabs $0x6c6167656c6c6920,%rax
  4022ec:	67 61 6c 
  4022ef:	48 89 43 20          	mov    %rax,0x20(%rbx)
  4022f3:	48 b8 20 6f 72 20 75 	movabs $0x72706e7520726f20,%rax
  4022fa:	6e 70 72 
  4022fd:	48 89 43 28          	mov    %rax,0x28(%rbx)
  402301:	48 b8 69 6e 74 61 62 	movabs $0x20656c6261746e69,%rax
  402308:	6c 65 20 
  40230b:	48 89 43 30          	mov    %rax,0x30(%rbx)
  40230f:	48 b8 63 68 61 72 61 	movabs $0x6574636172616863,%rax
  402316:	63 74 65 
  402319:	48 89 43 38          	mov    %rax,0x38(%rbx)
  40231d:	66 c7 43 40 72 2e    	movw   $0x2e72,0x40(%rbx)
  402323:	c6 43 42 00          	movb   $0x0,0x42(%rbx)
  402327:	89 ef                	mov    %ebp,%edi
  402329:	e8 22 e8 ff ff       	callq  400b50 <close@plt>
  40232e:	b8 ff ff ff ff       	mov    $0xffffffff,%eax
  402333:	e9 39 03 00 00       	jmpq   402671 <submitr+0x688>
  402338:	48 8d 84 24 30 40 00 	lea    0x4030(%rsp),%rax
  40233f:	00 
  402340:	48 89 04 24          	mov    %rax,(%rsp)
  402344:	4d 89 f1             	mov    %r14,%r9
  402347:	4c 8b 44 24 18       	mov    0x18(%rsp),%r8
  40234c:	4c 89 e9             	mov    %r13,%rcx
  40234f:	4c 89 e2             	mov    %r12,%rdx
  402352:	be 70 33 40 00       	mov    $0x403370,%esi
  402357:	48 8d bc 24 30 60 00 	lea    0x6030(%rsp),%rdi
  40235e:	00 
  40235f:	b8 00 00 00 00       	mov    $0x0,%eax
  402364:	e8 c7 e8 ff ff       	callq  400c30 <sprintf@plt>
  402369:	48 8d bc 24 30 60 00 	lea    0x6030(%rsp),%rdi
  402370:	00 
  402371:	b8 00 00 00 00       	mov    $0x0,%eax
  402376:	48 c7 c1 ff ff ff ff 	mov    $0xffffffffffffffff,%rcx
  40237d:	f2 ae                	repnz scas %es:(%rdi),%al
  40237f:	48 f7 d1             	not    %rcx
  402382:	48 8d 51 ff          	lea    -0x1(%rcx),%rdx
  402386:	48 8d b4 24 30 60 00 	lea    0x6030(%rsp),%rsi
  40238d:	00 
  40238e:	89 ef                	mov    %ebp,%edi
  402390:	e8 ec fa ff ff       	callq  401e81 <rio_writen>
  402395:	48 85 c0             	test   %rax,%rax
  402398:	79 5d                	jns    4023f7 <submitr+0x40e>
  40239a:	48 b8 45 72 72 6f 72 	movabs $0x43203a726f727245,%rax
  4023a1:	3a 20 43 
  4023a4:	48 89 03             	mov    %rax,(%rbx)
  4023a7:	48 b8 6c 69 65 6e 74 	movabs $0x6e7520746e65696c,%rax
  4023ae:	20 75 6e 
  4023b1:	48 89 43 08          	mov    %rax,0x8(%rbx)
  4023b5:	48 b8 61 62 6c 65 20 	movabs $0x206f7420656c6261,%rax
  4023bc:	74 6f 20 
  4023bf:	48 89 43 10          	mov    %rax,0x10(%rbx)
  4023c3:	48 b8 77 72 69 74 65 	movabs $0x6f74206574697277,%rax
  4023ca:	20 74 6f 
  4023cd:	48 89 43 18          	mov    %rax,0x18(%rbx)
  4023d1:	48 b8 20 74 68 65 20 	movabs $0x7265732065687420,%rax
  4023d8:	73 65 72 
  4023db:	48 89 43 20          	mov    %rax,0x20(%rbx)
  4023df:	c7 43 28 76 65 72 00 	movl   $0x726576,0x28(%rbx)
  4023e6:	89 ef                	mov    %ebp,%edi
  4023e8:	e8 63 e7 ff ff       	callq  400b50 <close@plt>
  4023ed:	b8 ff ff ff ff       	mov    $0xffffffff,%eax
  4023f2:	e9 7a 02 00 00       	jmpq   402671 <submitr+0x688>
  4023f7:	89 ee                	mov    %ebp,%esi
  4023f9:	48 8d bc 24 30 80 00 	lea    0x8030(%rsp),%rdi
  402400:	00 
  402401:	e8 6a f9 ff ff       	callq  401d70 <rio_readinitb>
  402406:	ba 00 20 00 00       	mov    $0x2000,%edx
  40240b:	48 8d b4 24 30 60 00 	lea    0x6030(%rsp),%rsi
  402412:	00 
  402413:	48 8d bc 24 30 80 00 	lea    0x8030(%rsp),%rdi
  40241a:	00 
  40241b:	e8 45 fb ff ff       	callq  401f65 <rio_readlineb>
  402420:	48 85 c0             	test   %rax,%rax
  402423:	7f 71                	jg     402496 <submitr+0x4ad>
  402425:	48 b8 45 72 72 6f 72 	movabs $0x43203a726f727245,%rax
  40242c:	3a 20 43 
  40242f:	48 89 03             	mov    %rax,(%rbx)
  402432:	48 b8 6c 69 65 6e 74 	movabs $0x6e7520746e65696c,%rax
  402439:	20 75 6e 
  40243c:	48 89 43 08          	mov    %rax,0x8(%rbx)
  402440:	48 b8 61 62 6c 65 20 	movabs $0x206f7420656c6261,%rax
  402447:	74 6f 20 
  40244a:	48 89 43 10          	mov    %rax,0x10(%rbx)
  40244e:	48 b8 72 65 61 64 20 	movabs $0x7269662064616572,%rax
  402455:	66 69 72 
  402458:	48 89 43 18          	mov    %rax,0x18(%rbx)
  40245c:	48 b8 73 74 20 68 65 	movabs $0x6564616568207473,%rax
  402463:	61 64 65 
  402466:	48 89 43 20          	mov    %rax,0x20(%rbx)
  40246a:	48 b8 72 20 66 72 6f 	movabs $0x73206d6f72662072,%rax
  402471:	6d 20 73 
  402474:	48 89 43 28          	mov    %rax,0x28(%rbx)
  402478:	c7 43 30 65 72 76 65 	movl   $0x65767265,0x30(%rbx)
  40247f:	66 c7 43 34 72 00    	movw   $0x72,0x34(%rbx)
  402485:	89 ef                	mov    %ebp,%edi
  402487:	e8 c4 e6 ff ff       	callq  400b50 <close@plt>
  40248c:	b8 ff ff ff ff       	mov    $0xffffffff,%eax
  402491:	e9 db 01 00 00       	jmpq   402671 <submitr+0x688>
  402496:	4c 8d 44 24 20       	lea    0x20(%rsp),%r8
  40249b:	48 8d 8c 24 2c 20 00 	lea    0x202c(%rsp),%rcx
  4024a2:	00 
  4024a3:	48 8d 94 24 30 20 00 	lea    0x2030(%rsp),%rdx
  4024aa:	00 
  4024ab:	be 27 34 40 00       	mov    $0x403427,%esi
  4024b0:	48 8d bc 24 30 60 00 	lea    0x6030(%rsp),%rdi
  4024b7:	00 
  4024b8:	b8 00 00 00 00       	mov    $0x0,%eax
  4024bd:	e8 2e e7 ff ff       	callq  400bf0 <__isoc99_sscanf@plt>
  4024c2:	8b 94 24 2c 20 00 00 	mov    0x202c(%rsp),%edx
  4024c9:	81 fa c8 00 00 00    	cmp    $0xc8,%edx
  4024cf:	0f 84 af 00 00 00    	je     402584 <submitr+0x59b>
  4024d5:	48 8d 4c 24 20       	lea    0x20(%rsp),%rcx
  4024da:	be c8 33 40 00       	mov    $0x4033c8,%esi
  4024df:	48 89 df             	mov    %rbx,%rdi
  4024e2:	b8 00 00 00 00       	mov    $0x0,%eax
  4024e7:	e8 44 e7 ff ff       	callq  400c30 <sprintf@plt>
  4024ec:	89 ef                	mov    %ebp,%edi
  4024ee:	e8 5d e6 ff ff       	callq  400b50 <close@plt>
  4024f3:	b8 ff ff ff ff       	mov    $0xffffffff,%eax
  4024f8:	e9 74 01 00 00       	jmpq   402671 <submitr+0x688>
  4024fd:	ba 00 20 00 00       	mov    $0x2000,%edx
  402502:	48 8d b4 24 30 60 00 	lea    0x6030(%rsp),%rsi
  402509:	00 
  40250a:	48 8d bc 24 30 80 00 	lea    0x8030(%rsp),%rdi
  402511:	00 
  402512:	e8 4e fa ff ff       	callq  401f65 <rio_readlineb>
  402517:	48 85 c0             	test   %rax,%rax
  40251a:	7f 68                	jg     402584 <submitr+0x59b>
  40251c:	48 b8 45 72 72 6f 72 	movabs $0x43203a726f727245,%rax
  402523:	3a 20 43 
  402526:	48 89 03             	mov    %rax,(%rbx)
  402529:	48 b8 6c 69 65 6e 74 	movabs $0x6e7520746e65696c,%rax
  402530:	20 75 6e 
  402533:	48 89 43 08          	mov    %rax,0x8(%rbx)
  402537:	48 b8 61 62 6c 65 20 	movabs $0x206f7420656c6261,%rax
  40253e:	74 6f 20 
  402541:	48 89 43 10          	mov    %rax,0x10(%rbx)
  402545:	48 b8 72 65 61 64 20 	movabs $0x6165682064616572,%rax
  40254c:	68 65 61 
  40254f:	48 89 43 18          	mov    %rax,0x18(%rbx)
  402553:	48 b8 64 65 72 73 20 	movabs $0x6f72662073726564,%rax
  40255a:	66 72 6f 
  40255d:	48 89 43 20          	mov    %rax,0x20(%rbx)
  402561:	48 b8 6d 20 73 65 72 	movabs $0x726576726573206d,%rax
  402568:	76 65 72 
  40256b:	48 89 43 28          	mov    %rax,0x28(%rbx)
  40256f:	c6 43 30 00          	movb   $0x0,0x30(%rbx)
  402573:	89 ef                	mov    %ebp,%edi
  402575:	e8 d6 e5 ff ff       	callq  400b50 <close@plt>
  40257a:	b8 ff ff ff ff       	mov    $0xffffffff,%eax
  40257f:	e9 ed 00 00 00       	jmpq   402671 <submitr+0x688>
  402584:	0f b6 84 24 30 60 00 	movzbl 0x6030(%rsp),%eax
  40258b:	00 
  40258c:	83 e8 0d             	sub    $0xd,%eax
  40258f:	75 15                	jne    4025a6 <submitr+0x5bd>
  402591:	0f b6 84 24 31 60 00 	movzbl 0x6031(%rsp),%eax
  402598:	00 
  402599:	83 e8 0a             	sub    $0xa,%eax
  40259c:	75 08                	jne    4025a6 <submitr+0x5bd>
  40259e:	0f b6 84 24 32 60 00 	movzbl 0x6032(%rsp),%eax
  4025a5:	00 
  4025a6:	85 c0                	test   %eax,%eax
  4025a8:	0f 85 4f ff ff ff    	jne    4024fd <submitr+0x514>
  4025ae:	ba 00 20 00 00       	mov    $0x2000,%edx
  4025b3:	48 8d b4 24 30 60 00 	lea    0x6030(%rsp),%rsi
  4025ba:	00 
  4025bb:	48 8d bc 24 30 80 00 	lea    0x8030(%rsp),%rdi
  4025c2:	00 
  4025c3:	e8 9d f9 ff ff       	callq  401f65 <rio_readlineb>
  4025c8:	48 85 c0             	test   %rax,%rax
  4025cb:	7f 6f                	jg     40263c <submitr+0x653>
  4025cd:	48 b8 45 72 72 6f 72 	movabs $0x43203a726f727245,%rax
  4025d4:	3a 20 43 
  4025d7:	48 89 03             	mov    %rax,(%rbx)
  4025da:	48 b8 6c 69 65 6e 74 	movabs $0x6e7520746e65696c,%rax
  4025e1:	20 75 6e 
  4025e4:	48 89 43 08          	mov    %rax,0x8(%rbx)
  4025e8:	48 b8 61 62 6c 65 20 	movabs $0x206f7420656c6261,%rax
  4025ef:	74 6f 20 
  4025f2:	48 89 43 10          	mov    %rax,0x10(%rbx)
  4025f6:	48 b8 72 65 61 64 20 	movabs $0x6174732064616572,%rax
  4025fd:	73 74 61 
  402600:	48 89 43 18          	mov    %rax,0x18(%rbx)
  402604:	48 b8 74 75 73 20 6d 	movabs $0x7373656d20737574,%rax
  40260b:	65 73 73 
  40260e:	48 89 43 20          	mov    %rax,0x20(%rbx)
  402612:	48 b8 61 67 65 20 66 	movabs $0x6d6f726620656761,%rax
  402619:	72 6f 6d 
  40261c:	48 89 43 28          	mov    %rax,0x28(%rbx)
  402620:	48 b8 20 73 65 72 76 	movabs $0x72657672657320,%rax
  402627:	65 72 00 
  40262a:	48 89 43 30          	mov    %rax,0x30(%rbx)
  40262e:	89 ef                	mov    %ebp,%edi
  402630:	e8 1b e5 ff ff       	callq  400b50 <close@plt>
  402635:	b8 ff ff ff ff       	mov    $0xffffffff,%eax
  40263a:	eb 35                	jmp    402671 <submitr+0x688>
  40263c:	48 8d b4 24 30 60 00 	lea    0x6030(%rsp),%rsi
  402643:	00 
  402644:	48 89 df             	mov    %rbx,%rdi
  402647:	e8 b4 e4 ff ff       	callq  400b00 <strcpy@plt>
  40264c:	89 ef                	mov    %ebp,%edi
  40264e:	e8 fd e4 ff ff       	callq  400b50 <close@plt>
  402653:	0f b6 03             	movzbl (%rbx),%eax
  402656:	83 e8 4f             	sub    $0x4f,%eax
  402659:	75 0d                	jne    402668 <submitr+0x67f>
  40265b:	0f b6 43 01          	movzbl 0x1(%rbx),%eax
  40265f:	83 e8 4b             	sub    $0x4b,%eax
  402662:	75 04                	jne    402668 <submitr+0x67f>
  402664:	0f b6 43 02          	movzbl 0x2(%rbx),%eax
  402668:	85 c0                	test   %eax,%eax
  40266a:	74 05                	je     402671 <submitr+0x688>
  40266c:	b8 ff ff ff ff       	mov    $0xffffffff,%eax
  402671:	48 81 c4 58 a0 00 00 	add    $0xa058,%rsp
  402678:	5b                   	pop    %rbx
  402679:	5d                   	pop    %rbp
  40267a:	41 5c                	pop    %r12
  40267c:	41 5d                	pop    %r13
  40267e:	41 5e                	pop    %r14
  402680:	41 5f                	pop    %r15
  402682:	c3                   	retq   

0000000000402683 <init_timeout>:
  402683:	53                   	push   %rbx
  402684:	89 fb                	mov    %edi,%ebx
  402686:	85 ff                	test   %edi,%edi
  402688:	74 1f                	je     4026a9 <init_timeout+0x26>
  40268a:	85 ff                	test   %edi,%edi
  40268c:	79 05                	jns    402693 <init_timeout+0x10>
  40268e:	bb 00 00 00 00       	mov    $0x0,%ebx
  402693:	be 82 1d 40 00       	mov    $0x401d82,%esi
  402698:	bf 0e 00 00 00       	mov    $0xe,%edi
  40269d:	e8 ee e4 ff ff       	callq  400b90 <signal@plt>
  4026a2:	89 df                	mov    %ebx,%edi
  4026a4:	e8 97 e4 ff ff       	callq  400b40 <alarm@plt>
  4026a9:	5b                   	pop    %rbx
  4026aa:	c3                   	retq   

00000000004026ab <init_driver>:
  4026ab:	55                   	push   %rbp
  4026ac:	53                   	push   %rbx
  4026ad:	48 83 ec 18          	sub    $0x18,%rsp
  4026b1:	48 89 fd             	mov    %rdi,%rbp
  4026b4:	be 01 00 00 00       	mov    $0x1,%esi
  4026b9:	bf 0d 00 00 00       	mov    $0xd,%edi
  4026be:	e8 cd e4 ff ff       	callq  400b90 <signal@plt>
  4026c3:	be 01 00 00 00       	mov    $0x1,%esi
  4026c8:	bf 1d 00 00 00       	mov    $0x1d,%edi
  4026cd:	e8 be e4 ff ff       	callq  400b90 <signal@plt>
  4026d2:	be 01 00 00 00       	mov    $0x1,%esi
  4026d7:	bf 1d 00 00 00       	mov    $0x1d,%edi
  4026dc:	e8 af e4 ff ff       	callq  400b90 <signal@plt>
  4026e1:	ba 00 00 00 00       	mov    $0x0,%edx
  4026e6:	be 01 00 00 00       	mov    $0x1,%esi
  4026eb:	bf 02 00 00 00       	mov    $0x2,%edi
  4026f0:	e8 8b e5 ff ff       	callq  400c80 <socket@plt>
  4026f5:	89 c3                	mov    %eax,%ebx
  4026f7:	85 c0                	test   %eax,%eax
  4026f9:	79 4f                	jns    40274a <init_driver+0x9f>
  4026fb:	48 b8 45 72 72 6f 72 	movabs $0x43203a726f727245,%rax
  402702:	3a 20 43 
  402705:	48 89 45 00          	mov    %rax,0x0(%rbp)
  402709:	48 b8 6c 69 65 6e 74 	movabs $0x6e7520746e65696c,%rax
  402710:	20 75 6e 
  402713:	48 89 45 08          	mov    %rax,0x8(%rbp)
  402717:	48 b8 61 62 6c 65 20 	movabs $0x206f7420656c6261,%rax
  40271e:	74 6f 20 
  402721:	48 89 45 10          	mov    %rax,0x10(%rbp)
  402725:	48 b8 63 72 65 61 74 	movabs $0x7320657461657263,%rax
  40272c:	65 20 73 
  40272f:	48 89 45 18          	mov    %rax,0x18(%rbp)
  402733:	c7 45 20 6f 63 6b 65 	movl   $0x656b636f,0x20(%rbp)
  40273a:	66 c7 45 24 74 00    	movw   $0x74,0x24(%rbp)
  402740:	b8 ff ff ff ff       	mov    $0xffffffff,%eax
  402745:	e9 f8 00 00 00       	jmpq   402842 <init_driver+0x197>
  40274a:	bf 0e 32 40 00       	mov    $0x40320e,%edi
  40274f:	e8 4c e4 ff ff       	callq  400ba0 <gethostbyname@plt>
  402754:	48 85 c0             	test   %rax,%rax
  402757:	75 68                	jne    4027c1 <init_driver+0x116>
  402759:	48 b8 45 72 72 6f 72 	movabs $0x44203a726f727245,%rax
  402760:	3a 20 44 
  402763:	48 89 45 00          	mov    %rax,0x0(%rbp)
  402767:	48 b8 4e 53 20 69 73 	movabs $0x6e7520736920534e,%rax
  40276e:	20 75 6e 
  402771:	48 89 45 08          	mov    %rax,0x8(%rbp)
  402775:	48 b8 61 62 6c 65 20 	movabs $0x206f7420656c6261,%rax
  40277c:	74 6f 20 
  40277f:	48 89 45 10          	mov    %rax,0x10(%rbp)
  402783:	48 b8 72 65 73 6f 6c 	movabs $0x2065766c6f736572,%rax
  40278a:	76 65 20 
  40278d:	48 89 45 18          	mov    %rax,0x18(%rbp)
  402791:	48 b8 73 65 72 76 65 	movabs $0x6120726576726573,%rax
  402798:	72 20 61 
  40279b:	48 89 45 20          	mov    %rax,0x20(%rbp)
  40279f:	c7 45 28 64 64 72 65 	movl   $0x65726464,0x28(%rbp)
  4027a6:	66 c7 45 2c 73 73    	movw   $0x7373,0x2c(%rbp)
  4027ac:	c6 45 2e 00          	movb   $0x0,0x2e(%rbp)
  4027b0:	89 df                	mov    %ebx,%edi
  4027b2:	e8 99 e3 ff ff       	callq  400b50 <close@plt>
  4027b7:	b8 ff ff ff ff       	mov    $0xffffffff,%eax
  4027bc:	e9 81 00 00 00       	jmpq   402842 <init_driver+0x197>
  4027c1:	48 c7 04 24 00 00 00 	movq   $0x0,(%rsp)
  4027c8:	00 
  4027c9:	48 c7 44 24 08 00 00 	movq   $0x0,0x8(%rsp)
  4027d0:	00 00 
  4027d2:	66 c7 04 24 02 00    	movw   $0x2,(%rsp)
  4027d8:	48 8b 48 18          	mov    0x18(%rax),%rcx
  4027dc:	48 63 50 14          	movslq 0x14(%rax),%rdx
  4027e0:	48 8d 74 24 04       	lea    0x4(%rsp),%rsi
  4027e5:	48 8b 39             	mov    (%rcx),%rdi
  4027e8:	e8 13 e4 ff ff       	callq  400c00 <bcopy@plt>
  4027ed:	66 c7 44 24 02 3b 6e 	movw   $0x6e3b,0x2(%rsp)
  4027f4:	ba 10 00 00 00       	mov    $0x10,%edx
  4027f9:	48 89 e6             	mov    %rsp,%rsi
  4027fc:	89 df                	mov    %ebx,%edi
  4027fe:	e8 4d e4 ff ff       	callq  400c50 <connect@plt>
  402803:	85 c0                	test   %eax,%eax
  402805:	79 25                	jns    40282c <init_driver+0x181>
  402807:	ba 0e 32 40 00       	mov    $0x40320e,%edx
  40280c:	be f8 33 40 00       	mov    $0x4033f8,%esi
  402811:	48 89 ef             	mov    %rbp,%rdi
  402814:	b8 00 00 00 00       	mov    $0x0,%eax
  402819:	e8 12 e4 ff ff       	callq  400c30 <sprintf@plt>
  40281e:	89 df                	mov    %ebx,%edi
  402820:	e8 2b e3 ff ff       	callq  400b50 <close@plt>
  402825:	b8 ff ff ff ff       	mov    $0xffffffff,%eax
  40282a:	eb 16                	jmp    402842 <init_driver+0x197>
  40282c:	89 df                	mov    %ebx,%edi
  40282e:	e8 1d e3 ff ff       	callq  400b50 <close@plt>
  402833:	66 c7 45 00 4f 4b    	movw   $0x4b4f,0x0(%rbp)
  402839:	c6 45 02 00          	movb   $0x0,0x2(%rbp)
  40283d:	b8 00 00 00 00       	mov    $0x0,%eax
  402842:	48 83 c4 18          	add    $0x18,%rsp
  402846:	5b                   	pop    %rbx
  402847:	5d                   	pop    %rbp
  402848:	c3                   	retq   

0000000000402849 <driver_post>:
  402849:	53                   	push   %rbx
  40284a:	48 83 ec 10          	sub    $0x10,%rsp
  40284e:	4c 89 c3             	mov    %r8,%rbx
  402851:	85 c9                	test   %ecx,%ecx
  402853:	74 22                	je     402877 <driver_post+0x2e>
  402855:	48 89 d6             	mov    %rdx,%rsi
  402858:	bf 38 34 40 00       	mov    $0x403438,%edi
  40285d:	b8 00 00 00 00       	mov    $0x0,%eax
  402862:	e8 c9 e2 ff ff       	callq  400b30 <printf@plt>
  402867:	66 c7 03 4f 4b       	movw   $0x4b4f,(%rbx)
  40286c:	c6 43 02 00          	movb   $0x0,0x2(%rbx)
  402870:	b8 00 00 00 00       	mov    $0x0,%eax
  402875:	eb 43                	jmp    4028ba <driver_post+0x71>
  402877:	48 85 ff             	test   %rdi,%rdi
  40287a:	74 30                	je     4028ac <driver_post+0x63>
  40287c:	80 3f 00             	cmpb   $0x0,(%rdi)
  40287f:	74 2b                	je     4028ac <driver_post+0x63>
  402881:	4c 89 44 24 08       	mov    %r8,0x8(%rsp)
  402886:	48 89 14 24          	mov    %rdx,(%rsp)
  40288a:	41 b9 4f 34 40 00    	mov    $0x40344f,%r9d
  402890:	49 89 f0             	mov    %rsi,%r8
  402893:	48 89 f9             	mov    %rdi,%rcx
  402896:	ba 54 34 40 00       	mov    $0x403454,%edx
  40289b:	be 6e 3b 00 00       	mov    $0x3b6e,%esi
  4028a0:	bf 0e 32 40 00       	mov    $0x40320e,%edi
  4028a5:	e8 3f f7 ff ff       	callq  401fe9 <submitr>
  4028aa:	eb 0e                	jmp    4028ba <driver_post+0x71>
  4028ac:	66 c7 03 4f 4b       	movw   $0x4b4f,(%rbx)
  4028b1:	c6 43 02 00          	movb   $0x0,0x2(%rbx)
  4028b5:	b8 00 00 00 00       	mov    $0x0,%eax
  4028ba:	48 83 c4 10          	add    $0x10,%rsp
  4028be:	5b                   	pop    %rbx
  4028bf:	c3                   	retq   

00000000004028c0 <__libc_csu_init>:
  4028c0:	41 57                	push   %r15
  4028c2:	41 89 ff             	mov    %edi,%r15d
  4028c5:	41 56                	push   %r14
  4028c7:	49 89 f6             	mov    %rsi,%r14
  4028ca:	41 55                	push   %r13
  4028cc:	49 89 d5             	mov    %rdx,%r13
  4028cf:	41 54                	push   %r12
  4028d1:	4c 8d 25 38 15 20 00 	lea    0x201538(%rip),%r12        # 603e10 <__frame_dummy_init_array_entry>
  4028d8:	55                   	push   %rbp
  4028d9:	48 8d 2d 38 15 20 00 	lea    0x201538(%rip),%rbp        # 603e18 <__init_array_end>
  4028e0:	53                   	push   %rbx
  4028e1:	4c 29 e5             	sub    %r12,%rbp
  4028e4:	31 db                	xor    %ebx,%ebx
  4028e6:	48 c1 fd 03          	sar    $0x3,%rbp
  4028ea:	48 83 ec 08          	sub    $0x8,%rsp
  4028ee:	e8 a5 e1 ff ff       	callq  400a98 <_init>
  4028f3:	48 85 ed             	test   %rbp,%rbp
  4028f6:	74 1e                	je     402916 <__libc_csu_init+0x56>
  4028f8:	0f 1f 84 00 00 00 00 	nopl   0x0(%rax,%rax,1)
  4028ff:	00 
  402900:	4c 89 ea             	mov    %r13,%rdx
  402903:	4c 89 f6             	mov    %r14,%rsi
  402906:	44 89 ff             	mov    %r15d,%edi
  402909:	41 ff 14 dc          	callq  *(%r12,%rbx,8)
  40290d:	48 83 c3 01          	add    $0x1,%rbx
  402911:	48 39 eb             	cmp    %rbp,%rbx
  402914:	75 ea                	jne    402900 <__libc_csu_init+0x40>
  402916:	48 83 c4 08          	add    $0x8,%rsp
  40291a:	5b                   	pop    %rbx
  40291b:	5d                   	pop    %rbp
  40291c:	41 5c                	pop    %r12
  40291e:	41 5d                	pop    %r13
  402920:	41 5e                	pop    %r14
  402922:	41 5f                	pop    %r15
  402924:	c3                   	retq   
  402925:	90                   	nop
  402926:	66 2e 0f 1f 84 00 00 	nopw   %cs:0x0(%rax,%rax,1)
  40292d:	00 00 00 

0000000000402930 <__libc_csu_fini>:
  402930:	f3 c3                	repz retq 

Disassembly of section .fini:

0000000000402934 <_fini>:
  402934:	48 83 ec 08          	sub    $0x8,%rsp
  402938:	48 83 c4 08          	add    $0x8,%rsp
  40293c:	c3                   	retq   
